
AmplifierMusic.elf:     file format elf32-littlearm

Sections:
Idx Name          Size      VMA       LMA       File off  Algn
  0 .isr_vector   000001d8  08000000  08000000  00010000  2**0
                  CONTENTS, ALLOC, LOAD, READONLY, DATA
  1 .text         000029fc  080001d8  080001d8  000101d8  2**3
                  CONTENTS, ALLOC, LOAD, READONLY, CODE
  2 .rodata       00002c50  08002bd4  08002bd4  00012bd4  2**1
                  CONTENTS, ALLOC, LOAD, READONLY, DATA
  3 .ARM.extab    00000000  08005824  08005824  000200ac  2**0
                  CONTENTS
  4 .ARM          00000008  08005824  08005824  00015824  2**2
                  CONTENTS, ALLOC, LOAD, READONLY, DATA
  5 .preinit_array 00000000  0800582c  0800582c  000200ac  2**0
                  CONTENTS, ALLOC, LOAD, DATA
  6 .init_array   00000004  0800582c  0800582c  0001582c  2**2
                  CONTENTS, ALLOC, LOAD, DATA
  7 .fini_array   00000004  08005830  08005830  00015830  2**2
                  CONTENTS, ALLOC, LOAD, DATA
  8 .data         000000ac  20000000  08005834  00020000  2**2
                  CONTENTS, ALLOC, LOAD, DATA
  9 .bss          000001e4  200000b0  080058e0  000200b0  2**3
                  ALLOC
 10 ._user_heap_stack 00000604  20000294  080058e0  00020294  2**0
                  ALLOC
 11 .ARM.attributes 00000030  00000000  00000000  000200ac  2**0
                  CONTENTS, READONLY
 12 .comment      00000053  00000000  00000000  000200dc  2**0
                  CONTENTS, READONLY
 13 .debug_frame  0000036c  00000000  00000000  00020130  2**2
                  CONTENTS, READONLY, DEBUGGING, OCTETS

Disassembly of section .text:

080001d8 <__do_global_dtors_aux>:
 80001d8:	b510      	push	{r4, lr}
 80001da:	4c05      	ldr	r4, [pc, #20]	; (80001f0 <__do_global_dtors_aux+0x18>)
 80001dc:	7823      	ldrb	r3, [r4, #0]
 80001de:	b933      	cbnz	r3, 80001ee <__do_global_dtors_aux+0x16>
 80001e0:	4b04      	ldr	r3, [pc, #16]	; (80001f4 <__do_global_dtors_aux+0x1c>)
 80001e2:	b113      	cbz	r3, 80001ea <__do_global_dtors_aux+0x12>
 80001e4:	4804      	ldr	r0, [pc, #16]	; (80001f8 <__do_global_dtors_aux+0x20>)
 80001e6:	f3af 8000 	nop.w
 80001ea:	2301      	movs	r3, #1
 80001ec:	7023      	strb	r3, [r4, #0]
 80001ee:	bd10      	pop	{r4, pc}
 80001f0:	200000b0 	.word	0x200000b0
 80001f4:	00000000 	.word	0x00000000
 80001f8:	08002bbc 	.word	0x08002bbc

080001fc <frame_dummy>:
 80001fc:	b508      	push	{r3, lr}
 80001fe:	4b03      	ldr	r3, [pc, #12]	; (800020c <frame_dummy+0x10>)
 8000200:	b11b      	cbz	r3, 800020a <frame_dummy+0xe>
 8000202:	4903      	ldr	r1, [pc, #12]	; (8000210 <frame_dummy+0x14>)
 8000204:	4803      	ldr	r0, [pc, #12]	; (8000214 <frame_dummy+0x18>)
 8000206:	f3af 8000 	nop.w
 800020a:	bd08      	pop	{r3, pc}
 800020c:	00000000 	.word	0x00000000
 8000210:	200000b4 	.word	0x200000b4
 8000214:	08002bbc 	.word	0x08002bbc

08000218 <__aeabi_drsub>:
 8000218:	f081 4100 	eor.w	r1, r1, #2147483648	; 0x80000000
 800021c:	e002      	b.n	8000224 <__adddf3>
 800021e:	bf00      	nop

08000220 <__aeabi_dsub>:
 8000220:	f083 4300 	eor.w	r3, r3, #2147483648	; 0x80000000

08000224 <__adddf3>:
 8000224:	b530      	push	{r4, r5, lr}
 8000226:	ea4f 0441 	mov.w	r4, r1, lsl #1
 800022a:	ea4f 0543 	mov.w	r5, r3, lsl #1
 800022e:	ea94 0f05 	teq	r4, r5
 8000232:	bf08      	it	eq
 8000234:	ea90 0f02 	teqeq	r0, r2
 8000238:	bf1f      	itttt	ne
 800023a:	ea54 0c00 	orrsne.w	ip, r4, r0
 800023e:	ea55 0c02 	orrsne.w	ip, r5, r2
 8000242:	ea7f 5c64 	mvnsne.w	ip, r4, asr #21
 8000246:	ea7f 5c65 	mvnsne.w	ip, r5, asr #21
 800024a:	f000 80e2 	beq.w	8000412 <__adddf3+0x1ee>
 800024e:	ea4f 5454 	mov.w	r4, r4, lsr #21
 8000252:	ebd4 5555 	rsbs	r5, r4, r5, lsr #21
 8000256:	bfb8      	it	lt
 8000258:	426d      	neglt	r5, r5
 800025a:	dd0c      	ble.n	8000276 <__adddf3+0x52>
 800025c:	442c      	add	r4, r5
 800025e:	ea80 0202 	eor.w	r2, r0, r2
 8000262:	ea81 0303 	eor.w	r3, r1, r3
 8000266:	ea82 0000 	eor.w	r0, r2, r0
 800026a:	ea83 0101 	eor.w	r1, r3, r1
 800026e:	ea80 0202 	eor.w	r2, r0, r2
 8000272:	ea81 0303 	eor.w	r3, r1, r3
 8000276:	2d36      	cmp	r5, #54	; 0x36
 8000278:	bf88      	it	hi
 800027a:	bd30      	pophi	{r4, r5, pc}
 800027c:	f011 4f00 	tst.w	r1, #2147483648	; 0x80000000
 8000280:	ea4f 3101 	mov.w	r1, r1, lsl #12
 8000284:	f44f 1c80 	mov.w	ip, #1048576	; 0x100000
 8000288:	ea4c 3111 	orr.w	r1, ip, r1, lsr #12
 800028c:	d002      	beq.n	8000294 <__adddf3+0x70>
 800028e:	4240      	negs	r0, r0
 8000290:	eb61 0141 	sbc.w	r1, r1, r1, lsl #1
 8000294:	f013 4f00 	tst.w	r3, #2147483648	; 0x80000000
 8000298:	ea4f 3303 	mov.w	r3, r3, lsl #12
 800029c:	ea4c 3313 	orr.w	r3, ip, r3, lsr #12
 80002a0:	d002      	beq.n	80002a8 <__adddf3+0x84>
 80002a2:	4252      	negs	r2, r2
 80002a4:	eb63 0343 	sbc.w	r3, r3, r3, lsl #1
 80002a8:	ea94 0f05 	teq	r4, r5
 80002ac:	f000 80a7 	beq.w	80003fe <__adddf3+0x1da>
 80002b0:	f1a4 0401 	sub.w	r4, r4, #1
 80002b4:	f1d5 0e20 	rsbs	lr, r5, #32
 80002b8:	db0d      	blt.n	80002d6 <__adddf3+0xb2>
 80002ba:	fa02 fc0e 	lsl.w	ip, r2, lr
 80002be:	fa22 f205 	lsr.w	r2, r2, r5
 80002c2:	1880      	adds	r0, r0, r2
 80002c4:	f141 0100 	adc.w	r1, r1, #0
 80002c8:	fa03 f20e 	lsl.w	r2, r3, lr
 80002cc:	1880      	adds	r0, r0, r2
 80002ce:	fa43 f305 	asr.w	r3, r3, r5
 80002d2:	4159      	adcs	r1, r3
 80002d4:	e00e      	b.n	80002f4 <__adddf3+0xd0>
 80002d6:	f1a5 0520 	sub.w	r5, r5, #32
 80002da:	f10e 0e20 	add.w	lr, lr, #32
 80002de:	2a01      	cmp	r2, #1
 80002e0:	fa03 fc0e 	lsl.w	ip, r3, lr
 80002e4:	bf28      	it	cs
 80002e6:	f04c 0c02 	orrcs.w	ip, ip, #2
 80002ea:	fa43 f305 	asr.w	r3, r3, r5
 80002ee:	18c0      	adds	r0, r0, r3
 80002f0:	eb51 71e3 	adcs.w	r1, r1, r3, asr #31
 80002f4:	f001 4500 	and.w	r5, r1, #2147483648	; 0x80000000
 80002f8:	d507      	bpl.n	800030a <__adddf3+0xe6>
 80002fa:	f04f 0e00 	mov.w	lr, #0
 80002fe:	f1dc 0c00 	rsbs	ip, ip, #0
 8000302:	eb7e 0000 	sbcs.w	r0, lr, r0
 8000306:	eb6e 0101 	sbc.w	r1, lr, r1
 800030a:	f5b1 1f80 	cmp.w	r1, #1048576	; 0x100000
 800030e:	d31b      	bcc.n	8000348 <__adddf3+0x124>
 8000310:	f5b1 1f00 	cmp.w	r1, #2097152	; 0x200000
 8000314:	d30c      	bcc.n	8000330 <__adddf3+0x10c>
 8000316:	0849      	lsrs	r1, r1, #1
 8000318:	ea5f 0030 	movs.w	r0, r0, rrx
 800031c:	ea4f 0c3c 	mov.w	ip, ip, rrx
 8000320:	f104 0401 	add.w	r4, r4, #1
 8000324:	ea4f 5244 	mov.w	r2, r4, lsl #21
 8000328:	f512 0f80 	cmn.w	r2, #4194304	; 0x400000
 800032c:	f080 809a 	bcs.w	8000464 <__adddf3+0x240>
 8000330:	f1bc 4f00 	cmp.w	ip, #2147483648	; 0x80000000
 8000334:	bf08      	it	eq
 8000336:	ea5f 0c50 	movseq.w	ip, r0, lsr #1
 800033a:	f150 0000 	adcs.w	r0, r0, #0
 800033e:	eb41 5104 	adc.w	r1, r1, r4, lsl #20
 8000342:	ea41 0105 	orr.w	r1, r1, r5
 8000346:	bd30      	pop	{r4, r5, pc}
 8000348:	ea5f 0c4c 	movs.w	ip, ip, lsl #1
 800034c:	4140      	adcs	r0, r0
 800034e:	eb41 0101 	adc.w	r1, r1, r1
 8000352:	3c01      	subs	r4, #1
 8000354:	bf28      	it	cs
 8000356:	f5b1 1f80 	cmpcs.w	r1, #1048576	; 0x100000
 800035a:	d2e9      	bcs.n	8000330 <__adddf3+0x10c>
 800035c:	f091 0f00 	teq	r1, #0
 8000360:	bf04      	itt	eq
 8000362:	4601      	moveq	r1, r0
 8000364:	2000      	moveq	r0, #0
 8000366:	fab1 f381 	clz	r3, r1
 800036a:	bf08      	it	eq
 800036c:	3320      	addeq	r3, #32
 800036e:	f1a3 030b 	sub.w	r3, r3, #11
 8000372:	f1b3 0220 	subs.w	r2, r3, #32
 8000376:	da0c      	bge.n	8000392 <__adddf3+0x16e>
 8000378:	320c      	adds	r2, #12
 800037a:	dd08      	ble.n	800038e <__adddf3+0x16a>
 800037c:	f102 0c14 	add.w	ip, r2, #20
 8000380:	f1c2 020c 	rsb	r2, r2, #12
 8000384:	fa01 f00c 	lsl.w	r0, r1, ip
 8000388:	fa21 f102 	lsr.w	r1, r1, r2
 800038c:	e00c      	b.n	80003a8 <__adddf3+0x184>
 800038e:	f102 0214 	add.w	r2, r2, #20
 8000392:	bfd8      	it	le
 8000394:	f1c2 0c20 	rsble	ip, r2, #32
 8000398:	fa01 f102 	lsl.w	r1, r1, r2
 800039c:	fa20 fc0c 	lsr.w	ip, r0, ip
 80003a0:	bfdc      	itt	le
 80003a2:	ea41 010c 	orrle.w	r1, r1, ip
 80003a6:	4090      	lslle	r0, r2
 80003a8:	1ae4      	subs	r4, r4, r3
 80003aa:	bfa2      	ittt	ge
 80003ac:	eb01 5104 	addge.w	r1, r1, r4, lsl #20
 80003b0:	4329      	orrge	r1, r5
 80003b2:	bd30      	popge	{r4, r5, pc}
 80003b4:	ea6f 0404 	mvn.w	r4, r4
 80003b8:	3c1f      	subs	r4, #31
 80003ba:	da1c      	bge.n	80003f6 <__adddf3+0x1d2>
 80003bc:	340c      	adds	r4, #12
 80003be:	dc0e      	bgt.n	80003de <__adddf3+0x1ba>
 80003c0:	f104 0414 	add.w	r4, r4, #20
 80003c4:	f1c4 0220 	rsb	r2, r4, #32
 80003c8:	fa20 f004 	lsr.w	r0, r0, r4
 80003cc:	fa01 f302 	lsl.w	r3, r1, r2
 80003d0:	ea40 0003 	orr.w	r0, r0, r3
 80003d4:	fa21 f304 	lsr.w	r3, r1, r4
 80003d8:	ea45 0103 	orr.w	r1, r5, r3
 80003dc:	bd30      	pop	{r4, r5, pc}
 80003de:	f1c4 040c 	rsb	r4, r4, #12
 80003e2:	f1c4 0220 	rsb	r2, r4, #32
 80003e6:	fa20 f002 	lsr.w	r0, r0, r2
 80003ea:	fa01 f304 	lsl.w	r3, r1, r4
 80003ee:	ea40 0003 	orr.w	r0, r0, r3
 80003f2:	4629      	mov	r1, r5
 80003f4:	bd30      	pop	{r4, r5, pc}
 80003f6:	fa21 f004 	lsr.w	r0, r1, r4
 80003fa:	4629      	mov	r1, r5
 80003fc:	bd30      	pop	{r4, r5, pc}
 80003fe:	f094 0f00 	teq	r4, #0
 8000402:	f483 1380 	eor.w	r3, r3, #1048576	; 0x100000
 8000406:	bf06      	itte	eq
 8000408:	f481 1180 	eoreq.w	r1, r1, #1048576	; 0x100000
 800040c:	3401      	addeq	r4, #1
 800040e:	3d01      	subne	r5, #1
 8000410:	e74e      	b.n	80002b0 <__adddf3+0x8c>
 8000412:	ea7f 5c64 	mvns.w	ip, r4, asr #21
 8000416:	bf18      	it	ne
 8000418:	ea7f 5c65 	mvnsne.w	ip, r5, asr #21
 800041c:	d029      	beq.n	8000472 <__adddf3+0x24e>
 800041e:	ea94 0f05 	teq	r4, r5
 8000422:	bf08      	it	eq
 8000424:	ea90 0f02 	teqeq	r0, r2
 8000428:	d005      	beq.n	8000436 <__adddf3+0x212>
 800042a:	ea54 0c00 	orrs.w	ip, r4, r0
 800042e:	bf04      	itt	eq
 8000430:	4619      	moveq	r1, r3
 8000432:	4610      	moveq	r0, r2
 8000434:	bd30      	pop	{r4, r5, pc}
 8000436:	ea91 0f03 	teq	r1, r3
 800043a:	bf1e      	ittt	ne
 800043c:	2100      	movne	r1, #0
 800043e:	2000      	movne	r0, #0
 8000440:	bd30      	popne	{r4, r5, pc}
 8000442:	ea5f 5c54 	movs.w	ip, r4, lsr #21
 8000446:	d105      	bne.n	8000454 <__adddf3+0x230>
 8000448:	0040      	lsls	r0, r0, #1
 800044a:	4149      	adcs	r1, r1
 800044c:	bf28      	it	cs
 800044e:	f041 4100 	orrcs.w	r1, r1, #2147483648	; 0x80000000
 8000452:	bd30      	pop	{r4, r5, pc}
 8000454:	f514 0480 	adds.w	r4, r4, #4194304	; 0x400000
 8000458:	bf3c      	itt	cc
 800045a:	f501 1180 	addcc.w	r1, r1, #1048576	; 0x100000
 800045e:	bd30      	popcc	{r4, r5, pc}
 8000460:	f001 4500 	and.w	r5, r1, #2147483648	; 0x80000000
 8000464:	f045 41fe 	orr.w	r1, r5, #2130706432	; 0x7f000000
 8000468:	f441 0170 	orr.w	r1, r1, #15728640	; 0xf00000
 800046c:	f04f 0000 	mov.w	r0, #0
 8000470:	bd30      	pop	{r4, r5, pc}
 8000472:	ea7f 5c64 	mvns.w	ip, r4, asr #21
 8000476:	bf1a      	itte	ne
 8000478:	4619      	movne	r1, r3
 800047a:	4610      	movne	r0, r2
 800047c:	ea7f 5c65 	mvnseq.w	ip, r5, asr #21
 8000480:	bf1c      	itt	ne
 8000482:	460b      	movne	r3, r1
 8000484:	4602      	movne	r2, r0
 8000486:	ea50 3401 	orrs.w	r4, r0, r1, lsl #12
 800048a:	bf06      	itte	eq
 800048c:	ea52 3503 	orrseq.w	r5, r2, r3, lsl #12
 8000490:	ea91 0f03 	teqeq	r1, r3
 8000494:	f441 2100 	orrne.w	r1, r1, #524288	; 0x80000
 8000498:	bd30      	pop	{r4, r5, pc}
 800049a:	bf00      	nop

0800049c <__aeabi_ui2d>:
 800049c:	f090 0f00 	teq	r0, #0
 80004a0:	bf04      	itt	eq
 80004a2:	2100      	moveq	r1, #0
 80004a4:	4770      	bxeq	lr
 80004a6:	b530      	push	{r4, r5, lr}
 80004a8:	f44f 6480 	mov.w	r4, #1024	; 0x400
 80004ac:	f104 0432 	add.w	r4, r4, #50	; 0x32
 80004b0:	f04f 0500 	mov.w	r5, #0
 80004b4:	f04f 0100 	mov.w	r1, #0
 80004b8:	e750      	b.n	800035c <__adddf3+0x138>
 80004ba:	bf00      	nop

080004bc <__aeabi_i2d>:
 80004bc:	f090 0f00 	teq	r0, #0
 80004c0:	bf04      	itt	eq
 80004c2:	2100      	moveq	r1, #0
 80004c4:	4770      	bxeq	lr
 80004c6:	b530      	push	{r4, r5, lr}
 80004c8:	f44f 6480 	mov.w	r4, #1024	; 0x400
 80004cc:	f104 0432 	add.w	r4, r4, #50	; 0x32
 80004d0:	f010 4500 	ands.w	r5, r0, #2147483648	; 0x80000000
 80004d4:	bf48      	it	mi
 80004d6:	4240      	negmi	r0, r0
 80004d8:	f04f 0100 	mov.w	r1, #0
 80004dc:	e73e      	b.n	800035c <__adddf3+0x138>
 80004de:	bf00      	nop

080004e0 <__aeabi_f2d>:
 80004e0:	0042      	lsls	r2, r0, #1
 80004e2:	ea4f 01e2 	mov.w	r1, r2, asr #3
 80004e6:	ea4f 0131 	mov.w	r1, r1, rrx
 80004ea:	ea4f 7002 	mov.w	r0, r2, lsl #28
 80004ee:	bf1f      	itttt	ne
 80004f0:	f012 437f 	andsne.w	r3, r2, #4278190080	; 0xff000000
 80004f4:	f093 4f7f 	teqne	r3, #4278190080	; 0xff000000
 80004f8:	f081 5160 	eorne.w	r1, r1, #939524096	; 0x38000000
 80004fc:	4770      	bxne	lr
 80004fe:	f032 427f 	bics.w	r2, r2, #4278190080	; 0xff000000
 8000502:	bf08      	it	eq
 8000504:	4770      	bxeq	lr
 8000506:	f093 4f7f 	teq	r3, #4278190080	; 0xff000000
 800050a:	bf04      	itt	eq
 800050c:	f441 2100 	orreq.w	r1, r1, #524288	; 0x80000
 8000510:	4770      	bxeq	lr
 8000512:	b530      	push	{r4, r5, lr}
 8000514:	f44f 7460 	mov.w	r4, #896	; 0x380
 8000518:	f001 4500 	and.w	r5, r1, #2147483648	; 0x80000000
 800051c:	f021 4100 	bic.w	r1, r1, #2147483648	; 0x80000000
 8000520:	e71c      	b.n	800035c <__adddf3+0x138>
 8000522:	bf00      	nop

08000524 <__aeabi_ul2d>:
 8000524:	ea50 0201 	orrs.w	r2, r0, r1
 8000528:	bf08      	it	eq
 800052a:	4770      	bxeq	lr
 800052c:	b530      	push	{r4, r5, lr}
 800052e:	f04f 0500 	mov.w	r5, #0
 8000532:	e00a      	b.n	800054a <__aeabi_l2d+0x16>

08000534 <__aeabi_l2d>:
 8000534:	ea50 0201 	orrs.w	r2, r0, r1
 8000538:	bf08      	it	eq
 800053a:	4770      	bxeq	lr
 800053c:	b530      	push	{r4, r5, lr}
 800053e:	f011 4500 	ands.w	r5, r1, #2147483648	; 0x80000000
 8000542:	d502      	bpl.n	800054a <__aeabi_l2d+0x16>
 8000544:	4240      	negs	r0, r0
 8000546:	eb61 0141 	sbc.w	r1, r1, r1, lsl #1
 800054a:	f44f 6480 	mov.w	r4, #1024	; 0x400
 800054e:	f104 0432 	add.w	r4, r4, #50	; 0x32
 8000552:	ea5f 5c91 	movs.w	ip, r1, lsr #22
 8000556:	f43f aed8 	beq.w	800030a <__adddf3+0xe6>
 800055a:	f04f 0203 	mov.w	r2, #3
 800055e:	ea5f 0cdc 	movs.w	ip, ip, lsr #3
 8000562:	bf18      	it	ne
 8000564:	3203      	addne	r2, #3
 8000566:	ea5f 0cdc 	movs.w	ip, ip, lsr #3
 800056a:	bf18      	it	ne
 800056c:	3203      	addne	r2, #3
 800056e:	eb02 02dc 	add.w	r2, r2, ip, lsr #3
 8000572:	f1c2 0320 	rsb	r3, r2, #32
 8000576:	fa00 fc03 	lsl.w	ip, r0, r3
 800057a:	fa20 f002 	lsr.w	r0, r0, r2
 800057e:	fa01 fe03 	lsl.w	lr, r1, r3
 8000582:	ea40 000e 	orr.w	r0, r0, lr
 8000586:	fa21 f102 	lsr.w	r1, r1, r2
 800058a:	4414      	add	r4, r2
 800058c:	e6bd      	b.n	800030a <__adddf3+0xe6>
 800058e:	bf00      	nop

08000590 <__aeabi_dmul>:
 8000590:	b570      	push	{r4, r5, r6, lr}
 8000592:	f04f 0cff 	mov.w	ip, #255	; 0xff
 8000596:	f44c 6ce0 	orr.w	ip, ip, #1792	; 0x700
 800059a:	ea1c 5411 	ands.w	r4, ip, r1, lsr #20
 800059e:	bf1d      	ittte	ne
 80005a0:	ea1c 5513 	andsne.w	r5, ip, r3, lsr #20
 80005a4:	ea94 0f0c 	teqne	r4, ip
 80005a8:	ea95 0f0c 	teqne	r5, ip
 80005ac:	f000 f8de 	bleq	800076c <__aeabi_dmul+0x1dc>
 80005b0:	442c      	add	r4, r5
 80005b2:	ea81 0603 	eor.w	r6, r1, r3
 80005b6:	ea21 514c 	bic.w	r1, r1, ip, lsl #21
 80005ba:	ea23 534c 	bic.w	r3, r3, ip, lsl #21
 80005be:	ea50 3501 	orrs.w	r5, r0, r1, lsl #12
 80005c2:	bf18      	it	ne
 80005c4:	ea52 3503 	orrsne.w	r5, r2, r3, lsl #12
 80005c8:	f441 1180 	orr.w	r1, r1, #1048576	; 0x100000
 80005cc:	f443 1380 	orr.w	r3, r3, #1048576	; 0x100000
 80005d0:	d038      	beq.n	8000644 <__aeabi_dmul+0xb4>
 80005d2:	fba0 ce02 	umull	ip, lr, r0, r2
 80005d6:	f04f 0500 	mov.w	r5, #0
 80005da:	fbe1 e502 	umlal	lr, r5, r1, r2
 80005de:	f006 4200 	and.w	r2, r6, #2147483648	; 0x80000000
 80005e2:	fbe0 e503 	umlal	lr, r5, r0, r3
 80005e6:	f04f 0600 	mov.w	r6, #0
 80005ea:	fbe1 5603 	umlal	r5, r6, r1, r3
 80005ee:	f09c 0f00 	teq	ip, #0
 80005f2:	bf18      	it	ne
 80005f4:	f04e 0e01 	orrne.w	lr, lr, #1
 80005f8:	f1a4 04ff 	sub.w	r4, r4, #255	; 0xff
 80005fc:	f5b6 7f00 	cmp.w	r6, #512	; 0x200
 8000600:	f564 7440 	sbc.w	r4, r4, #768	; 0x300
 8000604:	d204      	bcs.n	8000610 <__aeabi_dmul+0x80>
 8000606:	ea5f 0e4e 	movs.w	lr, lr, lsl #1
 800060a:	416d      	adcs	r5, r5
 800060c:	eb46 0606 	adc.w	r6, r6, r6
 8000610:	ea42 21c6 	orr.w	r1, r2, r6, lsl #11
 8000614:	ea41 5155 	orr.w	r1, r1, r5, lsr #21
 8000618:	ea4f 20c5 	mov.w	r0, r5, lsl #11
 800061c:	ea40 505e 	orr.w	r0, r0, lr, lsr #21
 8000620:	ea4f 2ece 	mov.w	lr, lr, lsl #11
 8000624:	f1b4 0cfd 	subs.w	ip, r4, #253	; 0xfd
 8000628:	bf88      	it	hi
 800062a:	f5bc 6fe0 	cmphi.w	ip, #1792	; 0x700
 800062e:	d81e      	bhi.n	800066e <__aeabi_dmul+0xde>
 8000630:	f1be 4f00 	cmp.w	lr, #2147483648	; 0x80000000
 8000634:	bf08      	it	eq
 8000636:	ea5f 0e50 	movseq.w	lr, r0, lsr #1
 800063a:	f150 0000 	adcs.w	r0, r0, #0
 800063e:	eb41 5104 	adc.w	r1, r1, r4, lsl #20
 8000642:	bd70      	pop	{r4, r5, r6, pc}
 8000644:	f006 4600 	and.w	r6, r6, #2147483648	; 0x80000000
 8000648:	ea46 0101 	orr.w	r1, r6, r1
 800064c:	ea40 0002 	orr.w	r0, r0, r2
 8000650:	ea81 0103 	eor.w	r1, r1, r3
 8000654:	ebb4 045c 	subs.w	r4, r4, ip, lsr #1
 8000658:	bfc2      	ittt	gt
 800065a:	ebd4 050c 	rsbsgt	r5, r4, ip
 800065e:	ea41 5104 	orrgt.w	r1, r1, r4, lsl #20
 8000662:	bd70      	popgt	{r4, r5, r6, pc}
 8000664:	f441 1180 	orr.w	r1, r1, #1048576	; 0x100000
 8000668:	f04f 0e00 	mov.w	lr, #0
 800066c:	3c01      	subs	r4, #1
 800066e:	f300 80ab 	bgt.w	80007c8 <__aeabi_dmul+0x238>
 8000672:	f114 0f36 	cmn.w	r4, #54	; 0x36
 8000676:	bfde      	ittt	le
 8000678:	2000      	movle	r0, #0
 800067a:	f001 4100 	andle.w	r1, r1, #2147483648	; 0x80000000
 800067e:	bd70      	pople	{r4, r5, r6, pc}
 8000680:	f1c4 0400 	rsb	r4, r4, #0
 8000684:	3c20      	subs	r4, #32
 8000686:	da35      	bge.n	80006f4 <__aeabi_dmul+0x164>
 8000688:	340c      	adds	r4, #12
 800068a:	dc1b      	bgt.n	80006c4 <__aeabi_dmul+0x134>
 800068c:	f104 0414 	add.w	r4, r4, #20
 8000690:	f1c4 0520 	rsb	r5, r4, #32
 8000694:	fa00 f305 	lsl.w	r3, r0, r5
 8000698:	fa20 f004 	lsr.w	r0, r0, r4
 800069c:	fa01 f205 	lsl.w	r2, r1, r5
 80006a0:	ea40 0002 	orr.w	r0, r0, r2
 80006a4:	f001 4200 	and.w	r2, r1, #2147483648	; 0x80000000
 80006a8:	f021 4100 	bic.w	r1, r1, #2147483648	; 0x80000000
 80006ac:	eb10 70d3 	adds.w	r0, r0, r3, lsr #31
 80006b0:	fa21 f604 	lsr.w	r6, r1, r4
 80006b4:	eb42 0106 	adc.w	r1, r2, r6
 80006b8:	ea5e 0e43 	orrs.w	lr, lr, r3, lsl #1
 80006bc:	bf08      	it	eq
 80006be:	ea20 70d3 	biceq.w	r0, r0, r3, lsr #31
 80006c2:	bd70      	pop	{r4, r5, r6, pc}
 80006c4:	f1c4 040c 	rsb	r4, r4, #12
 80006c8:	f1c4 0520 	rsb	r5, r4, #32
 80006cc:	fa00 f304 	lsl.w	r3, r0, r4
 80006d0:	fa20 f005 	lsr.w	r0, r0, r5
 80006d4:	fa01 f204 	lsl.w	r2, r1, r4
 80006d8:	ea40 0002 	orr.w	r0, r0, r2
 80006dc:	f001 4100 	and.w	r1, r1, #2147483648	; 0x80000000
 80006e0:	eb10 70d3 	adds.w	r0, r0, r3, lsr #31
 80006e4:	f141 0100 	adc.w	r1, r1, #0
 80006e8:	ea5e 0e43 	orrs.w	lr, lr, r3, lsl #1
 80006ec:	bf08      	it	eq
 80006ee:	ea20 70d3 	biceq.w	r0, r0, r3, lsr #31
 80006f2:	bd70      	pop	{r4, r5, r6, pc}
 80006f4:	f1c4 0520 	rsb	r5, r4, #32
 80006f8:	fa00 f205 	lsl.w	r2, r0, r5
 80006fc:	ea4e 0e02 	orr.w	lr, lr, r2
 8000700:	fa20 f304 	lsr.w	r3, r0, r4
 8000704:	fa01 f205 	lsl.w	r2, r1, r5
 8000708:	ea43 0302 	orr.w	r3, r3, r2
 800070c:	fa21 f004 	lsr.w	r0, r1, r4
 8000710:	f001 4100 	and.w	r1, r1, #2147483648	; 0x80000000
 8000714:	fa21 f204 	lsr.w	r2, r1, r4
 8000718:	ea20 0002 	bic.w	r0, r0, r2
 800071c:	eb00 70d3 	add.w	r0, r0, r3, lsr #31
 8000720:	ea5e 0e43 	orrs.w	lr, lr, r3, lsl #1
 8000724:	bf08      	it	eq
 8000726:	ea20 70d3 	biceq.w	r0, r0, r3, lsr #31
 800072a:	bd70      	pop	{r4, r5, r6, pc}
 800072c:	f094 0f00 	teq	r4, #0
 8000730:	d10f      	bne.n	8000752 <__aeabi_dmul+0x1c2>
 8000732:	f001 4600 	and.w	r6, r1, #2147483648	; 0x80000000
 8000736:	0040      	lsls	r0, r0, #1
 8000738:	eb41 0101 	adc.w	r1, r1, r1
 800073c:	f411 1f80 	tst.w	r1, #1048576	; 0x100000
 8000740:	bf08      	it	eq
 8000742:	3c01      	subeq	r4, #1
 8000744:	d0f7      	beq.n	8000736 <__aeabi_dmul+0x1a6>
 8000746:	ea41 0106 	orr.w	r1, r1, r6
 800074a:	f095 0f00 	teq	r5, #0
 800074e:	bf18      	it	ne
 8000750:	4770      	bxne	lr
 8000752:	f003 4600 	and.w	r6, r3, #2147483648	; 0x80000000
 8000756:	0052      	lsls	r2, r2, #1
 8000758:	eb43 0303 	adc.w	r3, r3, r3
 800075c:	f413 1f80 	tst.w	r3, #1048576	; 0x100000
 8000760:	bf08      	it	eq
 8000762:	3d01      	subeq	r5, #1
 8000764:	d0f7      	beq.n	8000756 <__aeabi_dmul+0x1c6>
 8000766:	ea43 0306 	orr.w	r3, r3, r6
 800076a:	4770      	bx	lr
 800076c:	ea94 0f0c 	teq	r4, ip
 8000770:	ea0c 5513 	and.w	r5, ip, r3, lsr #20
 8000774:	bf18      	it	ne
 8000776:	ea95 0f0c 	teqne	r5, ip
 800077a:	d00c      	beq.n	8000796 <__aeabi_dmul+0x206>
 800077c:	ea50 0641 	orrs.w	r6, r0, r1, lsl #1
 8000780:	bf18      	it	ne
 8000782:	ea52 0643 	orrsne.w	r6, r2, r3, lsl #1
 8000786:	d1d1      	bne.n	800072c <__aeabi_dmul+0x19c>
 8000788:	ea81 0103 	eor.w	r1, r1, r3
 800078c:	f001 4100 	and.w	r1, r1, #2147483648	; 0x80000000
 8000790:	f04f 0000 	mov.w	r0, #0
 8000794:	bd70      	pop	{r4, r5, r6, pc}
 8000796:	ea50 0641 	orrs.w	r6, r0, r1, lsl #1
 800079a:	bf06      	itte	eq
 800079c:	4610      	moveq	r0, r2
 800079e:	4619      	moveq	r1, r3
 80007a0:	ea52 0643 	orrsne.w	r6, r2, r3, lsl #1
 80007a4:	d019      	beq.n	80007da <__aeabi_dmul+0x24a>
 80007a6:	ea94 0f0c 	teq	r4, ip
 80007aa:	d102      	bne.n	80007b2 <__aeabi_dmul+0x222>
 80007ac:	ea50 3601 	orrs.w	r6, r0, r1, lsl #12
 80007b0:	d113      	bne.n	80007da <__aeabi_dmul+0x24a>
 80007b2:	ea95 0f0c 	teq	r5, ip
 80007b6:	d105      	bne.n	80007c4 <__aeabi_dmul+0x234>
 80007b8:	ea52 3603 	orrs.w	r6, r2, r3, lsl #12
 80007bc:	bf1c      	itt	ne
 80007be:	4610      	movne	r0, r2
 80007c0:	4619      	movne	r1, r3
 80007c2:	d10a      	bne.n	80007da <__aeabi_dmul+0x24a>
 80007c4:	ea81 0103 	eor.w	r1, r1, r3
 80007c8:	f001 4100 	and.w	r1, r1, #2147483648	; 0x80000000
 80007cc:	f041 41fe 	orr.w	r1, r1, #2130706432	; 0x7f000000
 80007d0:	f441 0170 	orr.w	r1, r1, #15728640	; 0xf00000
 80007d4:	f04f 0000 	mov.w	r0, #0
 80007d8:	bd70      	pop	{r4, r5, r6, pc}
 80007da:	f041 41fe 	orr.w	r1, r1, #2130706432	; 0x7f000000
 80007de:	f441 0178 	orr.w	r1, r1, #16252928	; 0xf80000
 80007e2:	bd70      	pop	{r4, r5, r6, pc}

080007e4 <__aeabi_ddiv>:
 80007e4:	b570      	push	{r4, r5, r6, lr}
 80007e6:	f04f 0cff 	mov.w	ip, #255	; 0xff
 80007ea:	f44c 6ce0 	orr.w	ip, ip, #1792	; 0x700
 80007ee:	ea1c 5411 	ands.w	r4, ip, r1, lsr #20
 80007f2:	bf1d      	ittte	ne
 80007f4:	ea1c 5513 	andsne.w	r5, ip, r3, lsr #20
 80007f8:	ea94 0f0c 	teqne	r4, ip
 80007fc:	ea95 0f0c 	teqne	r5, ip
 8000800:	f000 f8a7 	bleq	8000952 <__aeabi_ddiv+0x16e>
 8000804:	eba4 0405 	sub.w	r4, r4, r5
 8000808:	ea81 0e03 	eor.w	lr, r1, r3
 800080c:	ea52 3503 	orrs.w	r5, r2, r3, lsl #12
 8000810:	ea4f 3101 	mov.w	r1, r1, lsl #12
 8000814:	f000 8088 	beq.w	8000928 <__aeabi_ddiv+0x144>
 8000818:	ea4f 3303 	mov.w	r3, r3, lsl #12
 800081c:	f04f 5580 	mov.w	r5, #268435456	; 0x10000000
 8000820:	ea45 1313 	orr.w	r3, r5, r3, lsr #4
 8000824:	ea43 6312 	orr.w	r3, r3, r2, lsr #24
 8000828:	ea4f 2202 	mov.w	r2, r2, lsl #8
 800082c:	ea45 1511 	orr.w	r5, r5, r1, lsr #4
 8000830:	ea45 6510 	orr.w	r5, r5, r0, lsr #24
 8000834:	ea4f 2600 	mov.w	r6, r0, lsl #8
 8000838:	f00e 4100 	and.w	r1, lr, #2147483648	; 0x80000000
 800083c:	429d      	cmp	r5, r3
 800083e:	bf08      	it	eq
 8000840:	4296      	cmpeq	r6, r2
 8000842:	f144 04fd 	adc.w	r4, r4, #253	; 0xfd
 8000846:	f504 7440 	add.w	r4, r4, #768	; 0x300
 800084a:	d202      	bcs.n	8000852 <__aeabi_ddiv+0x6e>
 800084c:	085b      	lsrs	r3, r3, #1
 800084e:	ea4f 0232 	mov.w	r2, r2, rrx
 8000852:	1ab6      	subs	r6, r6, r2
 8000854:	eb65 0503 	sbc.w	r5, r5, r3
 8000858:	085b      	lsrs	r3, r3, #1
 800085a:	ea4f 0232 	mov.w	r2, r2, rrx
 800085e:	f44f 1080 	mov.w	r0, #1048576	; 0x100000
 8000862:	f44f 2c00 	mov.w	ip, #524288	; 0x80000
 8000866:	ebb6 0e02 	subs.w	lr, r6, r2
 800086a:	eb75 0e03 	sbcs.w	lr, r5, r3
 800086e:	bf22      	ittt	cs
 8000870:	1ab6      	subcs	r6, r6, r2
 8000872:	4675      	movcs	r5, lr
 8000874:	ea40 000c 	orrcs.w	r0, r0, ip
 8000878:	085b      	lsrs	r3, r3, #1
 800087a:	ea4f 0232 	mov.w	r2, r2, rrx
 800087e:	ebb6 0e02 	subs.w	lr, r6, r2
 8000882:	eb75 0e03 	sbcs.w	lr, r5, r3
 8000886:	bf22      	ittt	cs
 8000888:	1ab6      	subcs	r6, r6, r2
 800088a:	4675      	movcs	r5, lr
 800088c:	ea40 005c 	orrcs.w	r0, r0, ip, lsr #1
 8000890:	085b      	lsrs	r3, r3, #1
 8000892:	ea4f 0232 	mov.w	r2, r2, rrx
 8000896:	ebb6 0e02 	subs.w	lr, r6, r2
 800089a:	eb75 0e03 	sbcs.w	lr, r5, r3
 800089e:	bf22      	ittt	cs
 80008a0:	1ab6      	subcs	r6, r6, r2
 80008a2:	4675      	movcs	r5, lr
 80008a4:	ea40 009c 	orrcs.w	r0, r0, ip, lsr #2
 80008a8:	085b      	lsrs	r3, r3, #1
 80008aa:	ea4f 0232 	mov.w	r2, r2, rrx
 80008ae:	ebb6 0e02 	subs.w	lr, r6, r2
 80008b2:	eb75 0e03 	sbcs.w	lr, r5, r3
 80008b6:	bf22      	ittt	cs
 80008b8:	1ab6      	subcs	r6, r6, r2
 80008ba:	4675      	movcs	r5, lr
 80008bc:	ea40 00dc 	orrcs.w	r0, r0, ip, lsr #3
 80008c0:	ea55 0e06 	orrs.w	lr, r5, r6
 80008c4:	d018      	beq.n	80008f8 <__aeabi_ddiv+0x114>
 80008c6:	ea4f 1505 	mov.w	r5, r5, lsl #4
 80008ca:	ea45 7516 	orr.w	r5, r5, r6, lsr #28
 80008ce:	ea4f 1606 	mov.w	r6, r6, lsl #4
 80008d2:	ea4f 03c3 	mov.w	r3, r3, lsl #3
 80008d6:	ea43 7352 	orr.w	r3, r3, r2, lsr #29
 80008da:	ea4f 02c2 	mov.w	r2, r2, lsl #3
 80008de:	ea5f 1c1c 	movs.w	ip, ip, lsr #4
 80008e2:	d1c0      	bne.n	8000866 <__aeabi_ddiv+0x82>
 80008e4:	f411 1f80 	tst.w	r1, #1048576	; 0x100000
 80008e8:	d10b      	bne.n	8000902 <__aeabi_ddiv+0x11e>
 80008ea:	ea41 0100 	orr.w	r1, r1, r0
 80008ee:	f04f 0000 	mov.w	r0, #0
 80008f2:	f04f 4c00 	mov.w	ip, #2147483648	; 0x80000000
 80008f6:	e7b6      	b.n	8000866 <__aeabi_ddiv+0x82>
 80008f8:	f411 1f80 	tst.w	r1, #1048576	; 0x100000
 80008fc:	bf04      	itt	eq
 80008fe:	4301      	orreq	r1, r0
 8000900:	2000      	moveq	r0, #0
 8000902:	f1b4 0cfd 	subs.w	ip, r4, #253	; 0xfd
 8000906:	bf88      	it	hi
 8000908:	f5bc 6fe0 	cmphi.w	ip, #1792	; 0x700
 800090c:	f63f aeaf 	bhi.w	800066e <__aeabi_dmul+0xde>
 8000910:	ebb5 0c03 	subs.w	ip, r5, r3
 8000914:	bf04      	itt	eq
 8000916:	ebb6 0c02 	subseq.w	ip, r6, r2
 800091a:	ea5f 0c50 	movseq.w	ip, r0, lsr #1
 800091e:	f150 0000 	adcs.w	r0, r0, #0
 8000922:	eb41 5104 	adc.w	r1, r1, r4, lsl #20
 8000926:	bd70      	pop	{r4, r5, r6, pc}
 8000928:	f00e 4e00 	and.w	lr, lr, #2147483648	; 0x80000000
 800092c:	ea4e 3111 	orr.w	r1, lr, r1, lsr #12
 8000930:	eb14 045c 	adds.w	r4, r4, ip, lsr #1
 8000934:	bfc2      	ittt	gt
 8000936:	ebd4 050c 	rsbsgt	r5, r4, ip
 800093a:	ea41 5104 	orrgt.w	r1, r1, r4, lsl #20
 800093e:	bd70      	popgt	{r4, r5, r6, pc}
 8000940:	f441 1180 	orr.w	r1, r1, #1048576	; 0x100000
 8000944:	f04f 0e00 	mov.w	lr, #0
 8000948:	3c01      	subs	r4, #1
 800094a:	e690      	b.n	800066e <__aeabi_dmul+0xde>
 800094c:	ea45 0e06 	orr.w	lr, r5, r6
 8000950:	e68d      	b.n	800066e <__aeabi_dmul+0xde>
 8000952:	ea0c 5513 	and.w	r5, ip, r3, lsr #20
 8000956:	ea94 0f0c 	teq	r4, ip
 800095a:	bf08      	it	eq
 800095c:	ea95 0f0c 	teqeq	r5, ip
 8000960:	f43f af3b 	beq.w	80007da <__aeabi_dmul+0x24a>
 8000964:	ea94 0f0c 	teq	r4, ip
 8000968:	d10a      	bne.n	8000980 <__aeabi_ddiv+0x19c>
 800096a:	ea50 3401 	orrs.w	r4, r0, r1, lsl #12
 800096e:	f47f af34 	bne.w	80007da <__aeabi_dmul+0x24a>
 8000972:	ea95 0f0c 	teq	r5, ip
 8000976:	f47f af25 	bne.w	80007c4 <__aeabi_dmul+0x234>
 800097a:	4610      	mov	r0, r2
 800097c:	4619      	mov	r1, r3
 800097e:	e72c      	b.n	80007da <__aeabi_dmul+0x24a>
 8000980:	ea95 0f0c 	teq	r5, ip
 8000984:	d106      	bne.n	8000994 <__aeabi_ddiv+0x1b0>
 8000986:	ea52 3503 	orrs.w	r5, r2, r3, lsl #12
 800098a:	f43f aefd 	beq.w	8000788 <__aeabi_dmul+0x1f8>
 800098e:	4610      	mov	r0, r2
 8000990:	4619      	mov	r1, r3
 8000992:	e722      	b.n	80007da <__aeabi_dmul+0x24a>
 8000994:	ea50 0641 	orrs.w	r6, r0, r1, lsl #1
 8000998:	bf18      	it	ne
 800099a:	ea52 0643 	orrsne.w	r6, r2, r3, lsl #1
 800099e:	f47f aec5 	bne.w	800072c <__aeabi_dmul+0x19c>
 80009a2:	ea50 0441 	orrs.w	r4, r0, r1, lsl #1
 80009a6:	f47f af0d 	bne.w	80007c4 <__aeabi_dmul+0x234>
 80009aa:	ea52 0543 	orrs.w	r5, r2, r3, lsl #1
 80009ae:	f47f aeeb 	bne.w	8000788 <__aeabi_dmul+0x1f8>
 80009b2:	e712      	b.n	80007da <__aeabi_dmul+0x24a>

080009b4 <__gedf2>:
 80009b4:	f04f 3cff 	mov.w	ip, #4294967295	; 0xffffffff
 80009b8:	e006      	b.n	80009c8 <__cmpdf2+0x4>
 80009ba:	bf00      	nop

080009bc <__ledf2>:
 80009bc:	f04f 0c01 	mov.w	ip, #1
 80009c0:	e002      	b.n	80009c8 <__cmpdf2+0x4>
 80009c2:	bf00      	nop

080009c4 <__cmpdf2>:
 80009c4:	f04f 0c01 	mov.w	ip, #1
 80009c8:	f84d cd04 	str.w	ip, [sp, #-4]!
 80009cc:	ea4f 0c41 	mov.w	ip, r1, lsl #1
 80009d0:	ea7f 5c6c 	mvns.w	ip, ip, asr #21
 80009d4:	ea4f 0c43 	mov.w	ip, r3, lsl #1
 80009d8:	bf18      	it	ne
 80009da:	ea7f 5c6c 	mvnsne.w	ip, ip, asr #21
 80009de:	d01b      	beq.n	8000a18 <__cmpdf2+0x54>
 80009e0:	b001      	add	sp, #4
 80009e2:	ea50 0c41 	orrs.w	ip, r0, r1, lsl #1
 80009e6:	bf0c      	ite	eq
 80009e8:	ea52 0c43 	orrseq.w	ip, r2, r3, lsl #1
 80009ec:	ea91 0f03 	teqne	r1, r3
 80009f0:	bf02      	ittt	eq
 80009f2:	ea90 0f02 	teqeq	r0, r2
 80009f6:	2000      	moveq	r0, #0
 80009f8:	4770      	bxeq	lr
 80009fa:	f110 0f00 	cmn.w	r0, #0
 80009fe:	ea91 0f03 	teq	r1, r3
 8000a02:	bf58      	it	pl
 8000a04:	4299      	cmppl	r1, r3
 8000a06:	bf08      	it	eq
 8000a08:	4290      	cmpeq	r0, r2
 8000a0a:	bf2c      	ite	cs
 8000a0c:	17d8      	asrcs	r0, r3, #31
 8000a0e:	ea6f 70e3 	mvncc.w	r0, r3, asr #31
 8000a12:	f040 0001 	orr.w	r0, r0, #1
 8000a16:	4770      	bx	lr
 8000a18:	ea4f 0c41 	mov.w	ip, r1, lsl #1
 8000a1c:	ea7f 5c6c 	mvns.w	ip, ip, asr #21
 8000a20:	d102      	bne.n	8000a28 <__cmpdf2+0x64>
 8000a22:	ea50 3c01 	orrs.w	ip, r0, r1, lsl #12
 8000a26:	d107      	bne.n	8000a38 <__cmpdf2+0x74>
 8000a28:	ea4f 0c43 	mov.w	ip, r3, lsl #1
 8000a2c:	ea7f 5c6c 	mvns.w	ip, ip, asr #21
 8000a30:	d1d6      	bne.n	80009e0 <__cmpdf2+0x1c>
 8000a32:	ea52 3c03 	orrs.w	ip, r2, r3, lsl #12
 8000a36:	d0d3      	beq.n	80009e0 <__cmpdf2+0x1c>
 8000a38:	f85d 0b04 	ldr.w	r0, [sp], #4
 8000a3c:	4770      	bx	lr
 8000a3e:	bf00      	nop

08000a40 <__aeabi_cdrcmple>:
 8000a40:	4684      	mov	ip, r0
 8000a42:	4610      	mov	r0, r2
 8000a44:	4662      	mov	r2, ip
 8000a46:	468c      	mov	ip, r1
 8000a48:	4619      	mov	r1, r3
 8000a4a:	4663      	mov	r3, ip
 8000a4c:	e000      	b.n	8000a50 <__aeabi_cdcmpeq>
 8000a4e:	bf00      	nop

08000a50 <__aeabi_cdcmpeq>:
 8000a50:	b501      	push	{r0, lr}
 8000a52:	f7ff ffb7 	bl	80009c4 <__cmpdf2>
 8000a56:	2800      	cmp	r0, #0
 8000a58:	bf48      	it	mi
 8000a5a:	f110 0f00 	cmnmi.w	r0, #0
 8000a5e:	bd01      	pop	{r0, pc}

08000a60 <__aeabi_dcmpeq>:
 8000a60:	f84d ed08 	str.w	lr, [sp, #-8]!
 8000a64:	f7ff fff4 	bl	8000a50 <__aeabi_cdcmpeq>
 8000a68:	bf0c      	ite	eq
 8000a6a:	2001      	moveq	r0, #1
 8000a6c:	2000      	movne	r0, #0
 8000a6e:	f85d fb08 	ldr.w	pc, [sp], #8
 8000a72:	bf00      	nop

08000a74 <__aeabi_dcmplt>:
 8000a74:	f84d ed08 	str.w	lr, [sp, #-8]!
 8000a78:	f7ff ffea 	bl	8000a50 <__aeabi_cdcmpeq>
 8000a7c:	bf34      	ite	cc
 8000a7e:	2001      	movcc	r0, #1
 8000a80:	2000      	movcs	r0, #0
 8000a82:	f85d fb08 	ldr.w	pc, [sp], #8
 8000a86:	bf00      	nop

08000a88 <__aeabi_dcmple>:
 8000a88:	f84d ed08 	str.w	lr, [sp, #-8]!
 8000a8c:	f7ff ffe0 	bl	8000a50 <__aeabi_cdcmpeq>
 8000a90:	bf94      	ite	ls
 8000a92:	2001      	movls	r0, #1
 8000a94:	2000      	movhi	r0, #0
 8000a96:	f85d fb08 	ldr.w	pc, [sp], #8
 8000a9a:	bf00      	nop

08000a9c <__aeabi_dcmpge>:
 8000a9c:	f84d ed08 	str.w	lr, [sp, #-8]!
 8000aa0:	f7ff ffce 	bl	8000a40 <__aeabi_cdrcmple>
 8000aa4:	bf94      	ite	ls
 8000aa6:	2001      	movls	r0, #1
 8000aa8:	2000      	movhi	r0, #0
 8000aaa:	f85d fb08 	ldr.w	pc, [sp], #8
 8000aae:	bf00      	nop

08000ab0 <__aeabi_dcmpgt>:
 8000ab0:	f84d ed08 	str.w	lr, [sp, #-8]!
 8000ab4:	f7ff ffc4 	bl	8000a40 <__aeabi_cdrcmple>
 8000ab8:	bf34      	ite	cc
 8000aba:	2001      	movcc	r0, #1
 8000abc:	2000      	movcs	r0, #0
 8000abe:	f85d fb08 	ldr.w	pc, [sp], #8
 8000ac2:	bf00      	nop

08000ac4 <__aeabi_d2uiz>:
 8000ac4:	004a      	lsls	r2, r1, #1
 8000ac6:	d211      	bcs.n	8000aec <__aeabi_d2uiz+0x28>
 8000ac8:	f512 1200 	adds.w	r2, r2, #2097152	; 0x200000
 8000acc:	d211      	bcs.n	8000af2 <__aeabi_d2uiz+0x2e>
 8000ace:	d50d      	bpl.n	8000aec <__aeabi_d2uiz+0x28>
 8000ad0:	f46f 7378 	mvn.w	r3, #992	; 0x3e0
 8000ad4:	ebb3 5262 	subs.w	r2, r3, r2, asr #21
 8000ad8:	d40e      	bmi.n	8000af8 <__aeabi_d2uiz+0x34>
 8000ada:	ea4f 23c1 	mov.w	r3, r1, lsl #11
 8000ade:	f043 4300 	orr.w	r3, r3, #2147483648	; 0x80000000
 8000ae2:	ea43 5350 	orr.w	r3, r3, r0, lsr #21
 8000ae6:	fa23 f002 	lsr.w	r0, r3, r2
 8000aea:	4770      	bx	lr
 8000aec:	f04f 0000 	mov.w	r0, #0
 8000af0:	4770      	bx	lr
 8000af2:	ea50 3001 	orrs.w	r0, r0, r1, lsl #12
 8000af6:	d102      	bne.n	8000afe <__aeabi_d2uiz+0x3a>
 8000af8:	f04f 30ff 	mov.w	r0, #4294967295	; 0xffffffff
 8000afc:	4770      	bx	lr
 8000afe:	f04f 0000 	mov.w	r0, #0
 8000b02:	4770      	bx	lr

08000b04 <__aeabi_uldivmod>:
 8000b04:	b953      	cbnz	r3, 8000b1c <__aeabi_uldivmod+0x18>
 8000b06:	b94a      	cbnz	r2, 8000b1c <__aeabi_uldivmod+0x18>
 8000b08:	2900      	cmp	r1, #0
 8000b0a:	bf08      	it	eq
 8000b0c:	2800      	cmpeq	r0, #0
 8000b0e:	bf1c      	itt	ne
 8000b10:	f04f 31ff 	movne.w	r1, #4294967295	; 0xffffffff
 8000b14:	f04f 30ff 	movne.w	r0, #4294967295	; 0xffffffff
 8000b18:	f000 b96e 	b.w	8000df8 <__aeabi_idiv0>
 8000b1c:	f1ad 0c08 	sub.w	ip, sp, #8
 8000b20:	e96d ce04 	strd	ip, lr, [sp, #-16]!
 8000b24:	f000 f806 	bl	8000b34 <__udivmoddi4>
 8000b28:	f8dd e004 	ldr.w	lr, [sp, #4]
 8000b2c:	e9dd 2302 	ldrd	r2, r3, [sp, #8]
 8000b30:	b004      	add	sp, #16
 8000b32:	4770      	bx	lr

08000b34 <__udivmoddi4>:
 8000b34:	e92d 47f0 	stmdb	sp!, {r4, r5, r6, r7, r8, r9, sl, lr}
 8000b38:	9d08      	ldr	r5, [sp, #32]
 8000b3a:	4604      	mov	r4, r0
 8000b3c:	468c      	mov	ip, r1
 8000b3e:	2b00      	cmp	r3, #0
 8000b40:	f040 8083 	bne.w	8000c4a <__udivmoddi4+0x116>
 8000b44:	428a      	cmp	r2, r1
 8000b46:	4617      	mov	r7, r2
 8000b48:	d947      	bls.n	8000bda <__udivmoddi4+0xa6>
 8000b4a:	fab2 f282 	clz	r2, r2
 8000b4e:	b142      	cbz	r2, 8000b62 <__udivmoddi4+0x2e>
 8000b50:	f1c2 0020 	rsb	r0, r2, #32
 8000b54:	fa24 f000 	lsr.w	r0, r4, r0
 8000b58:	4091      	lsls	r1, r2
 8000b5a:	4097      	lsls	r7, r2
 8000b5c:	ea40 0c01 	orr.w	ip, r0, r1
 8000b60:	4094      	lsls	r4, r2
 8000b62:	ea4f 4817 	mov.w	r8, r7, lsr #16
 8000b66:	0c23      	lsrs	r3, r4, #16
 8000b68:	fbbc f6f8 	udiv	r6, ip, r8
 8000b6c:	fa1f fe87 	uxth.w	lr, r7
 8000b70:	fb08 c116 	mls	r1, r8, r6, ip
 8000b74:	ea43 4301 	orr.w	r3, r3, r1, lsl #16
 8000b78:	fb06 f10e 	mul.w	r1, r6, lr
 8000b7c:	4299      	cmp	r1, r3
 8000b7e:	d909      	bls.n	8000b94 <__udivmoddi4+0x60>
 8000b80:	18fb      	adds	r3, r7, r3
 8000b82:	f106 30ff 	add.w	r0, r6, #4294967295	; 0xffffffff
 8000b86:	f080 8119 	bcs.w	8000dbc <__udivmoddi4+0x288>
 8000b8a:	4299      	cmp	r1, r3
 8000b8c:	f240 8116 	bls.w	8000dbc <__udivmoddi4+0x288>
 8000b90:	3e02      	subs	r6, #2
 8000b92:	443b      	add	r3, r7
 8000b94:	1a5b      	subs	r3, r3, r1
 8000b96:	b2a4      	uxth	r4, r4
 8000b98:	fbb3 f0f8 	udiv	r0, r3, r8
 8000b9c:	fb08 3310 	mls	r3, r8, r0, r3
 8000ba0:	ea44 4403 	orr.w	r4, r4, r3, lsl #16
 8000ba4:	fb00 fe0e 	mul.w	lr, r0, lr
 8000ba8:	45a6      	cmp	lr, r4
 8000baa:	d909      	bls.n	8000bc0 <__udivmoddi4+0x8c>
 8000bac:	193c      	adds	r4, r7, r4
 8000bae:	f100 33ff 	add.w	r3, r0, #4294967295	; 0xffffffff
 8000bb2:	f080 8105 	bcs.w	8000dc0 <__udivmoddi4+0x28c>
 8000bb6:	45a6      	cmp	lr, r4
 8000bb8:	f240 8102 	bls.w	8000dc0 <__udivmoddi4+0x28c>
 8000bbc:	3802      	subs	r0, #2
 8000bbe:	443c      	add	r4, r7
 8000bc0:	ea40 4006 	orr.w	r0, r0, r6, lsl #16
 8000bc4:	eba4 040e 	sub.w	r4, r4, lr
 8000bc8:	2600      	movs	r6, #0
 8000bca:	b11d      	cbz	r5, 8000bd4 <__udivmoddi4+0xa0>
 8000bcc:	40d4      	lsrs	r4, r2
 8000bce:	2300      	movs	r3, #0
 8000bd0:	e9c5 4300 	strd	r4, r3, [r5]
 8000bd4:	4631      	mov	r1, r6
 8000bd6:	e8bd 87f0 	ldmia.w	sp!, {r4, r5, r6, r7, r8, r9, sl, pc}
 8000bda:	b902      	cbnz	r2, 8000bde <__udivmoddi4+0xaa>
 8000bdc:	deff      	udf	#255	; 0xff
 8000bde:	fab2 f282 	clz	r2, r2
 8000be2:	2a00      	cmp	r2, #0
 8000be4:	d150      	bne.n	8000c88 <__udivmoddi4+0x154>
 8000be6:	1bcb      	subs	r3, r1, r7
 8000be8:	ea4f 4e17 	mov.w	lr, r7, lsr #16
 8000bec:	fa1f f887 	uxth.w	r8, r7
 8000bf0:	2601      	movs	r6, #1
 8000bf2:	fbb3 fcfe 	udiv	ip, r3, lr
 8000bf6:	0c21      	lsrs	r1, r4, #16
 8000bf8:	fb0e 331c 	mls	r3, lr, ip, r3
 8000bfc:	ea41 4103 	orr.w	r1, r1, r3, lsl #16
 8000c00:	fb08 f30c 	mul.w	r3, r8, ip
 8000c04:	428b      	cmp	r3, r1
 8000c06:	d907      	bls.n	8000c18 <__udivmoddi4+0xe4>
 8000c08:	1879      	adds	r1, r7, r1
 8000c0a:	f10c 30ff 	add.w	r0, ip, #4294967295	; 0xffffffff
 8000c0e:	d202      	bcs.n	8000c16 <__udivmoddi4+0xe2>
 8000c10:	428b      	cmp	r3, r1
 8000c12:	f200 80e9 	bhi.w	8000de8 <__udivmoddi4+0x2b4>
 8000c16:	4684      	mov	ip, r0
 8000c18:	1ac9      	subs	r1, r1, r3
 8000c1a:	b2a3      	uxth	r3, r4
 8000c1c:	fbb1 f0fe 	udiv	r0, r1, lr
 8000c20:	fb0e 1110 	mls	r1, lr, r0, r1
 8000c24:	ea43 4401 	orr.w	r4, r3, r1, lsl #16
 8000c28:	fb08 f800 	mul.w	r8, r8, r0
 8000c2c:	45a0      	cmp	r8, r4
 8000c2e:	d907      	bls.n	8000c40 <__udivmoddi4+0x10c>
 8000c30:	193c      	adds	r4, r7, r4
 8000c32:	f100 33ff 	add.w	r3, r0, #4294967295	; 0xffffffff
 8000c36:	d202      	bcs.n	8000c3e <__udivmoddi4+0x10a>
 8000c38:	45a0      	cmp	r8, r4
 8000c3a:	f200 80d9 	bhi.w	8000df0 <__udivmoddi4+0x2bc>
 8000c3e:	4618      	mov	r0, r3
 8000c40:	eba4 0408 	sub.w	r4, r4, r8
 8000c44:	ea40 400c 	orr.w	r0, r0, ip, lsl #16
 8000c48:	e7bf      	b.n	8000bca <__udivmoddi4+0x96>
 8000c4a:	428b      	cmp	r3, r1
 8000c4c:	d909      	bls.n	8000c62 <__udivmoddi4+0x12e>
 8000c4e:	2d00      	cmp	r5, #0
 8000c50:	f000 80b1 	beq.w	8000db6 <__udivmoddi4+0x282>
 8000c54:	2600      	movs	r6, #0
 8000c56:	e9c5 0100 	strd	r0, r1, [r5]
 8000c5a:	4630      	mov	r0, r6
 8000c5c:	4631      	mov	r1, r6
 8000c5e:	e8bd 87f0 	ldmia.w	sp!, {r4, r5, r6, r7, r8, r9, sl, pc}
 8000c62:	fab3 f683 	clz	r6, r3
 8000c66:	2e00      	cmp	r6, #0
 8000c68:	d14a      	bne.n	8000d00 <__udivmoddi4+0x1cc>
 8000c6a:	428b      	cmp	r3, r1
 8000c6c:	d302      	bcc.n	8000c74 <__udivmoddi4+0x140>
 8000c6e:	4282      	cmp	r2, r0
 8000c70:	f200 80b8 	bhi.w	8000de4 <__udivmoddi4+0x2b0>
 8000c74:	1a84      	subs	r4, r0, r2
 8000c76:	eb61 0103 	sbc.w	r1, r1, r3
 8000c7a:	2001      	movs	r0, #1
 8000c7c:	468c      	mov	ip, r1
 8000c7e:	2d00      	cmp	r5, #0
 8000c80:	d0a8      	beq.n	8000bd4 <__udivmoddi4+0xa0>
 8000c82:	e9c5 4c00 	strd	r4, ip, [r5]
 8000c86:	e7a5      	b.n	8000bd4 <__udivmoddi4+0xa0>
 8000c88:	f1c2 0320 	rsb	r3, r2, #32
 8000c8c:	fa20 f603 	lsr.w	r6, r0, r3
 8000c90:	4097      	lsls	r7, r2
 8000c92:	fa01 f002 	lsl.w	r0, r1, r2
 8000c96:	ea4f 4e17 	mov.w	lr, r7, lsr #16
 8000c9a:	40d9      	lsrs	r1, r3
 8000c9c:	4330      	orrs	r0, r6
 8000c9e:	0c03      	lsrs	r3, r0, #16
 8000ca0:	fbb1 f6fe 	udiv	r6, r1, lr
 8000ca4:	fa1f f887 	uxth.w	r8, r7
 8000ca8:	fb0e 1116 	mls	r1, lr, r6, r1
 8000cac:	ea43 4301 	orr.w	r3, r3, r1, lsl #16
 8000cb0:	fb06 f108 	mul.w	r1, r6, r8
 8000cb4:	4299      	cmp	r1, r3
 8000cb6:	fa04 f402 	lsl.w	r4, r4, r2
 8000cba:	d909      	bls.n	8000cd0 <__udivmoddi4+0x19c>
 8000cbc:	18fb      	adds	r3, r7, r3
 8000cbe:	f106 3cff 	add.w	ip, r6, #4294967295	; 0xffffffff
 8000cc2:	f080 808d 	bcs.w	8000de0 <__udivmoddi4+0x2ac>
 8000cc6:	4299      	cmp	r1, r3
 8000cc8:	f240 808a 	bls.w	8000de0 <__udivmoddi4+0x2ac>
 8000ccc:	3e02      	subs	r6, #2
 8000cce:	443b      	add	r3, r7
 8000cd0:	1a5b      	subs	r3, r3, r1
 8000cd2:	b281      	uxth	r1, r0
 8000cd4:	fbb3 f0fe 	udiv	r0, r3, lr
 8000cd8:	fb0e 3310 	mls	r3, lr, r0, r3
 8000cdc:	ea41 4103 	orr.w	r1, r1, r3, lsl #16
 8000ce0:	fb00 f308 	mul.w	r3, r0, r8
 8000ce4:	428b      	cmp	r3, r1
 8000ce6:	d907      	bls.n	8000cf8 <__udivmoddi4+0x1c4>
 8000ce8:	1879      	adds	r1, r7, r1
 8000cea:	f100 3cff 	add.w	ip, r0, #4294967295	; 0xffffffff
 8000cee:	d273      	bcs.n	8000dd8 <__udivmoddi4+0x2a4>
 8000cf0:	428b      	cmp	r3, r1
 8000cf2:	d971      	bls.n	8000dd8 <__udivmoddi4+0x2a4>
 8000cf4:	3802      	subs	r0, #2
 8000cf6:	4439      	add	r1, r7
 8000cf8:	1acb      	subs	r3, r1, r3
 8000cfa:	ea40 4606 	orr.w	r6, r0, r6, lsl #16
 8000cfe:	e778      	b.n	8000bf2 <__udivmoddi4+0xbe>
 8000d00:	f1c6 0c20 	rsb	ip, r6, #32
 8000d04:	fa03 f406 	lsl.w	r4, r3, r6
 8000d08:	fa22 f30c 	lsr.w	r3, r2, ip
 8000d0c:	431c      	orrs	r4, r3
 8000d0e:	fa20 f70c 	lsr.w	r7, r0, ip
 8000d12:	fa01 f306 	lsl.w	r3, r1, r6
 8000d16:	ea4f 4e14 	mov.w	lr, r4, lsr #16
 8000d1a:	fa21 f10c 	lsr.w	r1, r1, ip
 8000d1e:	431f      	orrs	r7, r3
 8000d20:	0c3b      	lsrs	r3, r7, #16
 8000d22:	fbb1 f9fe 	udiv	r9, r1, lr
 8000d26:	fa1f f884 	uxth.w	r8, r4
 8000d2a:	fb0e 1119 	mls	r1, lr, r9, r1
 8000d2e:	ea43 4101 	orr.w	r1, r3, r1, lsl #16
 8000d32:	fb09 fa08 	mul.w	sl, r9, r8
 8000d36:	458a      	cmp	sl, r1
 8000d38:	fa02 f206 	lsl.w	r2, r2, r6
 8000d3c:	fa00 f306 	lsl.w	r3, r0, r6
 8000d40:	d908      	bls.n	8000d54 <__udivmoddi4+0x220>
 8000d42:	1861      	adds	r1, r4, r1
 8000d44:	f109 30ff 	add.w	r0, r9, #4294967295	; 0xffffffff
 8000d48:	d248      	bcs.n	8000ddc <__udivmoddi4+0x2a8>
 8000d4a:	458a      	cmp	sl, r1
 8000d4c:	d946      	bls.n	8000ddc <__udivmoddi4+0x2a8>
 8000d4e:	f1a9 0902 	sub.w	r9, r9, #2
 8000d52:	4421      	add	r1, r4
 8000d54:	eba1 010a 	sub.w	r1, r1, sl
 8000d58:	b2bf      	uxth	r7, r7
 8000d5a:	fbb1 f0fe 	udiv	r0, r1, lr
 8000d5e:	fb0e 1110 	mls	r1, lr, r0, r1
 8000d62:	ea47 4701 	orr.w	r7, r7, r1, lsl #16
 8000d66:	fb00 f808 	mul.w	r8, r0, r8
 8000d6a:	45b8      	cmp	r8, r7
 8000d6c:	d907      	bls.n	8000d7e <__udivmoddi4+0x24a>
 8000d6e:	19e7      	adds	r7, r4, r7
 8000d70:	f100 31ff 	add.w	r1, r0, #4294967295	; 0xffffffff
 8000d74:	d22e      	bcs.n	8000dd4 <__udivmoddi4+0x2a0>
 8000d76:	45b8      	cmp	r8, r7
 8000d78:	d92c      	bls.n	8000dd4 <__udivmoddi4+0x2a0>
 8000d7a:	3802      	subs	r0, #2
 8000d7c:	4427      	add	r7, r4
 8000d7e:	ea40 4009 	orr.w	r0, r0, r9, lsl #16
 8000d82:	eba7 0708 	sub.w	r7, r7, r8
 8000d86:	fba0 8902 	umull	r8, r9, r0, r2
 8000d8a:	454f      	cmp	r7, r9
 8000d8c:	46c6      	mov	lr, r8
 8000d8e:	4649      	mov	r1, r9
 8000d90:	d31a      	bcc.n	8000dc8 <__udivmoddi4+0x294>
 8000d92:	d017      	beq.n	8000dc4 <__udivmoddi4+0x290>
 8000d94:	b15d      	cbz	r5, 8000dae <__udivmoddi4+0x27a>
 8000d96:	ebb3 020e 	subs.w	r2, r3, lr
 8000d9a:	eb67 0701 	sbc.w	r7, r7, r1
 8000d9e:	fa07 fc0c 	lsl.w	ip, r7, ip
 8000da2:	40f2      	lsrs	r2, r6
 8000da4:	ea4c 0202 	orr.w	r2, ip, r2
 8000da8:	40f7      	lsrs	r7, r6
 8000daa:	e9c5 2700 	strd	r2, r7, [r5]
 8000dae:	2600      	movs	r6, #0
 8000db0:	4631      	mov	r1, r6
 8000db2:	e8bd 87f0 	ldmia.w	sp!, {r4, r5, r6, r7, r8, r9, sl, pc}
 8000db6:	462e      	mov	r6, r5
 8000db8:	4628      	mov	r0, r5
 8000dba:	e70b      	b.n	8000bd4 <__udivmoddi4+0xa0>
 8000dbc:	4606      	mov	r6, r0
 8000dbe:	e6e9      	b.n	8000b94 <__udivmoddi4+0x60>
 8000dc0:	4618      	mov	r0, r3
 8000dc2:	e6fd      	b.n	8000bc0 <__udivmoddi4+0x8c>
 8000dc4:	4543      	cmp	r3, r8
 8000dc6:	d2e5      	bcs.n	8000d94 <__udivmoddi4+0x260>
 8000dc8:	ebb8 0e02 	subs.w	lr, r8, r2
 8000dcc:	eb69 0104 	sbc.w	r1, r9, r4
 8000dd0:	3801      	subs	r0, #1
 8000dd2:	e7df      	b.n	8000d94 <__udivmoddi4+0x260>
 8000dd4:	4608      	mov	r0, r1
 8000dd6:	e7d2      	b.n	8000d7e <__udivmoddi4+0x24a>
 8000dd8:	4660      	mov	r0, ip
 8000dda:	e78d      	b.n	8000cf8 <__udivmoddi4+0x1c4>
 8000ddc:	4681      	mov	r9, r0
 8000dde:	e7b9      	b.n	8000d54 <__udivmoddi4+0x220>
 8000de0:	4666      	mov	r6, ip
 8000de2:	e775      	b.n	8000cd0 <__udivmoddi4+0x19c>
 8000de4:	4630      	mov	r0, r6
 8000de6:	e74a      	b.n	8000c7e <__udivmoddi4+0x14a>
 8000de8:	f1ac 0c02 	sub.w	ip, ip, #2
 8000dec:	4439      	add	r1, r7
 8000dee:	e713      	b.n	8000c18 <__udivmoddi4+0xe4>
 8000df0:	3802      	subs	r0, #2
 8000df2:	443c      	add	r4, r7
 8000df4:	e724      	b.n	8000c40 <__udivmoddi4+0x10c>
 8000df6:	bf00      	nop

08000df8 <__aeabi_idiv0>:
 8000df8:	4770      	bx	lr
 8000dfa:	bf00      	nop

08000dfc <SystemClock_Config>:
 8000dfc:	b510      	push	{r4, lr}
 8000dfe:	b094      	sub	sp, #80	; 0x50
 8000e00:	2210      	movs	r2, #16
 8000e02:	2100      	movs	r1, #0
 8000e04:	a809      	add	r0, sp, #36	; 0x24
 8000e06:	f001 fe43 	bl	8002a90 <memset>
 8000e0a:	2214      	movs	r2, #20
 8000e0c:	2100      	movs	r1, #0
 8000e0e:	a802      	add	r0, sp, #8
 8000e10:	f001 fe3e 	bl	8002a90 <memset>
 8000e14:	4b1f      	ldr	r3, [pc, #124]	; (8000e94 <SystemClock_Config+0x98>)
 8000e16:	2100      	movs	r1, #0
 8000e18:	9100      	str	r1, [sp, #0]
 8000e1a:	6c1a      	ldr	r2, [r3, #64]	; 0x40
 8000e1c:	f042 5280 	orr.w	r2, r2, #268435456	; 0x10000000
 8000e20:	641a      	str	r2, [r3, #64]	; 0x40
 8000e22:	6c1b      	ldr	r3, [r3, #64]	; 0x40
 8000e24:	f003 5380 	and.w	r3, r3, #268435456	; 0x10000000
 8000e28:	9300      	str	r3, [sp, #0]
 8000e2a:	9b00      	ldr	r3, [sp, #0]
 8000e2c:	4b1a      	ldr	r3, [pc, #104]	; (8000e98 <SystemClock_Config+0x9c>)
 8000e2e:	9101      	str	r1, [sp, #4]
 8000e30:	681a      	ldr	r2, [r3, #0]
 8000e32:	f442 4240 	orr.w	r2, r2, #49152	; 0xc000
 8000e36:	601a      	str	r2, [r3, #0]
 8000e38:	681b      	ldr	r3, [r3, #0]
 8000e3a:	f403 4340 	and.w	r3, r3, #49152	; 0xc000
 8000e3e:	9301      	str	r3, [sp, #4]
 8000e40:	9b01      	ldr	r3, [sp, #4]
 8000e42:	2201      	movs	r2, #1
 8000e44:	f44f 3380 	mov.w	r3, #65536	; 0x10000
 8000e48:	2402      	movs	r4, #2
 8000e4a:	e9cd 2307 	strd	r2, r3, [sp, #28]
 8000e4e:	f44f 0380 	mov.w	r3, #4194304	; 0x400000
 8000e52:	2104      	movs	r1, #4
 8000e54:	e9cd 430d 	strd	r4, r3, [sp, #52]	; 0x34
 8000e58:	2350      	movs	r3, #80	; 0x50
 8000e5a:	e9cd 130f 	strd	r1, r3, [sp, #60]	; 0x3c
 8000e5e:	a807      	add	r0, sp, #28
 8000e60:	2308      	movs	r3, #8
 8000e62:	e9cd 3412 	strd	r3, r4, [sp, #72]	; 0x48
 8000e66:	9411      	str	r4, [sp, #68]	; 0x44
 8000e68:	f001 f802 	bl	8001e70 <HAL_RCC_OscConfig>
 8000e6c:	4601      	mov	r1, r0
 8000e6e:	b108      	cbz	r0, 8000e74 <SystemClock_Config+0x78>
 8000e70:	b672      	cpsid	i
 8000e72:	e7fe      	b.n	8000e72 <SystemClock_Config+0x76>
 8000e74:	230f      	movs	r3, #15
 8000e76:	e9cd 3402 	strd	r3, r4, [sp, #8]
 8000e7a:	2390      	movs	r3, #144	; 0x90
 8000e7c:	e9cd 3004 	strd	r3, r0, [sp, #16]
 8000e80:	9006      	str	r0, [sp, #24]
 8000e82:	a802      	add	r0, sp, #8
 8000e84:	f000 ff58 	bl	8001d38 <HAL_RCC_ClockConfig>
 8000e88:	b108      	cbz	r0, 8000e8e <SystemClock_Config+0x92>
 8000e8a:	b672      	cpsid	i
 8000e8c:	e7fe      	b.n	8000e8c <SystemClock_Config+0x90>
 8000e8e:	b014      	add	sp, #80	; 0x50
 8000e90:	bd10      	pop	{r4, pc}
 8000e92:	bf00      	nop
 8000e94:	40023800 	.word	0x40023800
 8000e98:	40007000 	.word	0x40007000
 8000e9c:	00000000 	.word	0x00000000

08000ea0 <main>:
 8000ea0:	b500      	push	{lr}
 8000ea2:	b0a9      	sub	sp, #164	; 0xa4
 8000ea4:	f000 fd38 	bl	8001918 <HAL_Init>
 8000ea8:	f7ff ffa8 	bl	8000dfc <SystemClock_Config>
 8000eac:	2214      	movs	r2, #20
 8000eae:	2100      	movs	r1, #0
 8000eb0:	a821      	add	r0, sp, #132	; 0x84
 8000eb2:	f001 fded 	bl	8002a90 <memset>
 8000eb6:	2400      	movs	r4, #0
 8000eb8:	4b83      	ldr	r3, [pc, #524]	; (80010c8 <main+0x228>)
 8000eba:	9419      	str	r4, [sp, #100]	; 0x64
 8000ebc:	6b1a      	ldr	r2, [r3, #48]	; 0x30
 8000ebe:	4883      	ldr	r0, [pc, #524]	; (80010cc <main+0x22c>)
 8000ec0:	f042 0210 	orr.w	r2, r2, #16
 8000ec4:	631a      	str	r2, [r3, #48]	; 0x30
 8000ec6:	6b1a      	ldr	r2, [r3, #48]	; 0x30
 8000ec8:	f002 0210 	and.w	r2, r2, #16
 8000ecc:	9219      	str	r2, [sp, #100]	; 0x64
 8000ece:	9a19      	ldr	r2, [sp, #100]	; 0x64
 8000ed0:	941a      	str	r4, [sp, #104]	; 0x68
 8000ed2:	6b1a      	ldr	r2, [r3, #48]	; 0x30
 8000ed4:	f042 0280 	orr.w	r2, r2, #128	; 0x80
 8000ed8:	631a      	str	r2, [r3, #48]	; 0x30
 8000eda:	6b1a      	ldr	r2, [r3, #48]	; 0x30
 8000edc:	f002 0280 	and.w	r2, r2, #128	; 0x80
 8000ee0:	921a      	str	r2, [sp, #104]	; 0x68
 8000ee2:	9a1a      	ldr	r2, [sp, #104]	; 0x68
 8000ee4:	941b      	str	r4, [sp, #108]	; 0x6c
 8000ee6:	6b1a      	ldr	r2, [r3, #48]	; 0x30
 8000ee8:	f042 0201 	orr.w	r2, r2, #1
 8000eec:	631a      	str	r2, [r3, #48]	; 0x30
 8000eee:	6b1a      	ldr	r2, [r3, #48]	; 0x30
 8000ef0:	f002 0201 	and.w	r2, r2, #1
 8000ef4:	921b      	str	r2, [sp, #108]	; 0x6c
 8000ef6:	9a1b      	ldr	r2, [sp, #108]	; 0x6c
 8000ef8:	941c      	str	r4, [sp, #112]	; 0x70
 8000efa:	6b1a      	ldr	r2, [r3, #48]	; 0x30
 8000efc:	f042 0208 	orr.w	r2, r2, #8
 8000f00:	631a      	str	r2, [r3, #48]	; 0x30
 8000f02:	6b1b      	ldr	r3, [r3, #48]	; 0x30
 8000f04:	f003 0308 	and.w	r3, r3, #8
 8000f08:	4622      	mov	r2, r4
 8000f0a:	931c      	str	r3, [sp, #112]	; 0x70
 8000f0c:	f44f 41a0 	mov.w	r1, #20480	; 0x5000
 8000f10:	9b1c      	ldr	r3, [sp, #112]	; 0x70
 8000f12:	2601      	movs	r6, #1
 8000f14:	f000 fedc 	bl	8001cd0 <HAL_GPIO_WritePin>
 8000f18:	f44f 43a0 	mov.w	r3, #20480	; 0x5000
 8000f1c:	486b      	ldr	r0, [pc, #428]	; (80010cc <main+0x22c>)
 8000f1e:	a921      	add	r1, sp, #132	; 0x84
 8000f20:	e9cd 3621 	strd	r3, r6, [sp, #132]	; 0x84
 8000f24:	e9cd 4423 	strd	r4, r4, [sp, #140]	; 0x8c
 8000f28:	f000 fdfe 	bl	8001b28 <HAL_GPIO_Init>
 8000f2c:	e9cd 4421 	strd	r4, r4, [sp, #132]	; 0x84
 8000f30:	4c67      	ldr	r4, [pc, #412]	; (80010d0 <main+0x230>)
 8000f32:	4b68      	ldr	r3, [pc, #416]	; (80010d4 <main+0x234>)
 8000f34:	6023      	str	r3, [r4, #0]
 8000f36:	4620      	mov	r0, r4
 8000f38:	f000 fd96 	bl	8001a68 <HAL_DAC_Init>
 8000f3c:	4602      	mov	r2, r0
 8000f3e:	b108      	cbz	r0, 8000f44 <main+0xa4>
 8000f40:	b672      	cpsid	i
 8000f42:	e7fe      	b.n	8000f42 <main+0xa2>
 8000f44:	2324      	movs	r3, #36	; 0x24
 8000f46:	e9cd 3021 	strd	r3, r0, [sp, #132]	; 0x84
 8000f4a:	a921      	add	r1, sp, #132	; 0x84
 8000f4c:	4620      	mov	r0, r4
 8000f4e:	f000 fdc8 	bl	8001ae2 <HAL_DAC_ConfigChannel>
 8000f52:	b108      	cbz	r0, 8000f58 <main+0xb8>
 8000f54:	b672      	cpsid	i
 8000f56:	e7fe      	b.n	8000f56 <main+0xb6>
 8000f58:	232c      	movs	r3, #44	; 0x2c
 8000f5a:	4620      	mov	r0, r4
 8000f5c:	2210      	movs	r2, #16
 8000f5e:	a921      	add	r1, sp, #132	; 0x84
 8000f60:	9321      	str	r3, [sp, #132]	; 0x84
 8000f62:	f000 fdbe 	bl	8001ae2 <HAL_DAC_ConfigChannel>
 8000f66:	4604      	mov	r4, r0
 8000f68:	b108      	cbz	r0, 8000f6e <main+0xce>
 8000f6a:	b672      	cpsid	i
 8000f6c:	e7fe      	b.n	8000f6c <main+0xcc>
 8000f6e:	4601      	mov	r1, r0
 8000f70:	2210      	movs	r2, #16
 8000f72:	a81d      	add	r0, sp, #116	; 0x74
 8000f74:	f001 fd8c 	bl	8002a90 <memset>
 8000f78:	221c      	movs	r2, #28
 8000f7a:	4621      	mov	r1, r4
 8000f7c:	a821      	add	r0, sp, #132	; 0x84
 8000f7e:	f001 fd87 	bl	8002a90 <memset>
 8000f82:	4d55      	ldr	r5, [pc, #340]	; (80010d8 <main+0x238>)
 8000f84:	4b55      	ldr	r3, [pc, #340]	; (80010dc <main+0x23c>)
 8000f86:	60ac      	str	r4, [r5, #8]
 8000f88:	e9c5 3600 	strd	r3, r6, [r5]
 8000f8c:	4628      	mov	r0, r5
 8000f8e:	f240 73ff 	movw	r3, #2047	; 0x7ff
 8000f92:	e9c5 3403 	strd	r3, r4, [r5, #12]
 8000f96:	61ac      	str	r4, [r5, #24]
 8000f98:	f001 faf6 	bl	8002588 <HAL_TIM_Base_Init>
 8000f9c:	b108      	cbz	r0, 8000fa2 <main+0x102>
 8000f9e:	b672      	cpsid	i
 8000fa0:	e7fe      	b.n	8000fa0 <main+0x100>
 8000fa2:	f44f 5680 	mov.w	r6, #4096	; 0x1000
 8000fa6:	a91d      	add	r1, sp, #116	; 0x74
 8000fa8:	4628      	mov	r0, r5
 8000faa:	961d      	str	r6, [sp, #116]	; 0x74
 8000fac:	f001 fbe2 	bl	8002774 <HAL_TIM_ConfigClockSource>
 8000fb0:	b108      	cbz	r0, 8000fb6 <main+0x116>
 8000fb2:	b672      	cpsid	i
 8000fb4:	e7fe      	b.n	8000fb4 <main+0x114>
 8000fb6:	4628      	mov	r0, r5
 8000fb8:	f001 fb12 	bl	80025e0 <HAL_TIM_PWM_Init>
 8000fbc:	4602      	mov	r2, r0
 8000fbe:	b108      	cbz	r0, 8000fc4 <main+0x124>
 8000fc0:	b672      	cpsid	i
 8000fc2:	e7fe      	b.n	8000fc2 <main+0x122>
 8000fc4:	2160      	movs	r1, #96	; 0x60
 8000fc6:	f44f 43fa 	mov.w	r3, #32000	; 0x7d00
 8000fca:	e9cd 1321 	strd	r1, r3, [sp, #132]	; 0x84
 8000fce:	9023      	str	r0, [sp, #140]	; 0x8c
 8000fd0:	2304      	movs	r3, #4
 8000fd2:	a921      	add	r1, sp, #132	; 0x84
 8000fd4:	4628      	mov	r0, r5
 8000fd6:	9325      	str	r3, [sp, #148]	; 0x94
 8000fd8:	f001 fb64 	bl	80026a4 <HAL_TIM_PWM_ConfigChannel>
 8000fdc:	4604      	mov	r4, r0
 8000fde:	b108      	cbz	r0, 8000fe4 <main+0x144>
 8000fe0:	b672      	cpsid	i
 8000fe2:	e7fe      	b.n	8000fe2 <main+0x142>
 8000fe4:	4628      	mov	r0, r5
 8000fe6:	f000 fbfb 	bl	80017e0 <HAL_TIM_MspPostInit>
 8000fea:	2210      	movs	r2, #16
 8000fec:	4621      	mov	r1, r4
 8000fee:	a821      	add	r0, sp, #132	; 0x84
 8000ff0:	f001 fd4e 	bl	8002a90 <memset>
 8000ff4:	4d3a      	ldr	r5, [pc, #232]	; (80010e0 <main+0x240>)
 8000ff6:	4b3b      	ldr	r3, [pc, #236]	; (80010e4 <main+0x244>)
 8000ff8:	60ac      	str	r4, [r5, #8]
 8000ffa:	e9c5 3400 	strd	r3, r4, [r5]
 8000ffe:	4628      	mov	r0, r5
 8001000:	f241 23bf 	movw	r3, #4799	; 0x12bf
 8001004:	e9cd 441d 	strd	r4, r4, [sp, #116]	; 0x74
 8001008:	e9c5 3403 	strd	r3, r4, [r5, #12]
 800100c:	e9c5 4405 	strd	r4, r4, [r5, #20]
 8001010:	f001 faba 	bl	8002588 <HAL_TIM_Base_Init>
 8001014:	b108      	cbz	r0, 800101a <main+0x17a>
 8001016:	b672      	cpsid	i
 8001018:	e7fe      	b.n	8001018 <main+0x178>
 800101a:	a921      	add	r1, sp, #132	; 0x84
 800101c:	4628      	mov	r0, r5
 800101e:	9621      	str	r6, [sp, #132]	; 0x84
 8001020:	f001 fba8 	bl	8002774 <HAL_TIM_ConfigClockSource>
 8001024:	b108      	cbz	r0, 800102a <main+0x18a>
 8001026:	b672      	cpsid	i
 8001028:	e7fe      	b.n	8001028 <main+0x188>
 800102a:	e9cd 001d 	strd	r0, r0, [sp, #116]	; 0x74
 800102e:	a91d      	add	r1, sp, #116	; 0x74
 8001030:	4628      	mov	r0, r5
 8001032:	f001 fcb1 	bl	8002998 <HAL_TIMEx_MasterConfigSynchronization>
 8001036:	b108      	cbz	r0, 800103c <main+0x19c>
 8001038:	b672      	cpsid	i
 800103a:	e7fe      	b.n	800103a <main+0x19a>
 800103c:	4c28      	ldr	r4, [pc, #160]	; (80010e0 <main+0x240>)
 800103e:	4620      	mov	r0, r4
 8001040:	f001 f95a 	bl	80022f8 <HAL_TIM_Base_Start_IT>
 8001044:	4601      	mov	r1, r0
 8001046:	2800      	cmp	r0, #0
 8001048:	d1f9      	bne.n	800103e <main+0x19e>
 800104a:	9017      	str	r0, [sp, #92]	; 0x5c
 800104c:	4822      	ldr	r0, [pc, #136]	; (80010d8 <main+0x238>)
 800104e:	4c26      	ldr	r4, [pc, #152]	; (80010e8 <main+0x248>)
 8001050:	f001 fca0 	bl	8002994 <HAL_TIM_PWM_Start>
 8001054:	9917      	ldr	r1, [sp, #92]	; 0x5c
 8001056:	481e      	ldr	r0, [pc, #120]	; (80010d0 <main+0x230>)
 8001058:	f000 fd19 	bl	8001a8e <HAL_DAC_Start>
 800105c:	ed9f 0b18 	vldr	d0, [pc, #96]	; 80010c0 <main+0x220>
 8001060:	481f      	ldr	r0, [pc, #124]	; (80010e0 <main+0x240>)
 8001062:	f000 facf 	bl	8001604 <initialize_song_engine>
 8001066:	9917      	ldr	r1, [sp, #92]	; 0x5c
 8001068:	481b      	ldr	r0, [pc, #108]	; (80010d8 <main+0x238>)
 800106a:	f000 fb09 	bl	8001680 <set_pwm_output>
 800106e:	4b1f      	ldr	r3, [pc, #124]	; (80010ec <main+0x24c>)
 8001070:	681b      	ldr	r3, [r3, #0]
 8001072:	60a3      	str	r3, [r4, #8]
 8001074:	4b1e      	ldr	r3, [pc, #120]	; (80010f0 <main+0x250>)
 8001076:	681b      	ldr	r3, [r3, #0]
 8001078:	60e3      	str	r3, [r4, #12]
 800107a:	4b1e      	ldr	r3, [pc, #120]	; (80010f4 <main+0x254>)
 800107c:	681b      	ldr	r3, [r3, #0]
 800107e:	6123      	str	r3, [r4, #16]
 8001080:	4b1d      	ldr	r3, [pc, #116]	; (80010f8 <main+0x258>)
 8001082:	681b      	ldr	r3, [r3, #0]
 8001084:	6163      	str	r3, [r4, #20]
 8001086:	2378      	movs	r3, #120	; 0x78
 8001088:	8063      	strh	r3, [r4, #2]
 800108a:	2304      	movs	r3, #4
 800108c:	7023      	strb	r3, [r4, #0]
 800108e:	2258      	movs	r2, #88	; 0x58
 8001090:	2303      	movs	r3, #3
 8001092:	f104 0110 	add.w	r1, r4, #16
 8001096:	4668      	mov	r0, sp
 8001098:	7123      	strb	r3, [r4, #4]
 800109a:	f001 fceb 	bl	8002a74 <memcpy>
 800109e:	e894 000f 	ldmia.w	r4, {r0, r1, r2, r3}
 80010a2:	f000 facb 	bl	800163c <load_song>
 80010a6:	f000 faed 	bl	8001684 <play_song>
 80010aa:	f000 fb11 	bl	80016d0 <get_song_status>
 80010ae:	b910      	cbnz	r0, 80010b6 <main+0x216>
 80010b0:	f000 faf2 	bl	8001698 <stop_song>
 80010b4:	e7f7      	b.n	80010a6 <main+0x206>
 80010b6:	2064      	movs	r0, #100	; 0x64
 80010b8:	f000 fc5a 	bl	8001970 <HAL_Delay>
 80010bc:	e7f5      	b.n	80010aa <main+0x20a>
 80010be:	bf00      	nop
 80010c0:	00000000 	.word	0x00000000
 80010c4:	4196e360 	.word	0x4196e360
 80010c8:	40023800 	.word	0x40023800
 80010cc:	40020c00 	.word	0x40020c00
 80010d0:	20000140 	.word	0x20000140
 80010d4:	40007400 	.word	0x40007400
 80010d8:	2000019c 	.word	0x2000019c
 80010dc:	40014000 	.word	0x40014000
 80010e0:	20000154 	.word	0x20000154
 80010e4:	40010000 	.word	0x40010000
 80010e8:	200000d8 	.word	0x200000d8
 80010ec:	20000008 	.word	0x20000008
 80010f0:	2000000c 	.word	0x2000000c
 80010f4:	20000004 	.word	0x20000004
 80010f8:	20000000 	.word	0x20000000

080010fc <timer_output_handler>:
 80010fc:	4b0f      	ldr	r3, [pc, #60]	; (800113c <timer_output_handler+0x40>)
 80010fe:	781b      	ldrb	r3, [r3, #0]
 8001100:	2b08      	cmp	r3, #8
 8001102:	d011      	beq.n	8001128 <timer_output_handler+0x2c>
 8001104:	d803      	bhi.n	800110e <timer_output_handler+0x12>
 8001106:	b12b      	cbz	r3, 8001114 <timer_output_handler+0x18>
 8001108:	2b04      	cmp	r3, #4
 800110a:	d008      	beq.n	800111e <timer_output_handler+0x22>
 800110c:	4770      	bx	lr
 800110e:	2b0c      	cmp	r3, #12
 8001110:	d00f      	beq.n	8001132 <timer_output_handler+0x36>
 8001112:	4770      	bx	lr
 8001114:	4b0a      	ldr	r3, [pc, #40]	; (8001140 <timer_output_handler+0x44>)
 8001116:	681b      	ldr	r3, [r3, #0]
 8001118:	681b      	ldr	r3, [r3, #0]
 800111a:	6358      	str	r0, [r3, #52]	; 0x34
 800111c:	4770      	bx	lr
 800111e:	4b08      	ldr	r3, [pc, #32]	; (8001140 <timer_output_handler+0x44>)
 8001120:	681b      	ldr	r3, [r3, #0]
 8001122:	681b      	ldr	r3, [r3, #0]
 8001124:	6398      	str	r0, [r3, #56]	; 0x38
 8001126:	4770      	bx	lr
 8001128:	4b05      	ldr	r3, [pc, #20]	; (8001140 <timer_output_handler+0x44>)
 800112a:	681b      	ldr	r3, [r3, #0]
 800112c:	681b      	ldr	r3, [r3, #0]
 800112e:	63d8      	str	r0, [r3, #60]	; 0x3c
 8001130:	4770      	bx	lr
 8001132:	4b03      	ldr	r3, [pc, #12]	; (8001140 <timer_output_handler+0x44>)
 8001134:	681b      	ldr	r3, [r3, #0]
 8001136:	681b      	ldr	r3, [r3, #0]
 8001138:	6418      	str	r0, [r3, #64]	; 0x40
 800113a:	4770      	bx	lr
 800113c:	20000210 	.word	0x20000210
 8001140:	200000d0 	.word	0x200000d0

08001144 <setup_synth_engine>:
 8001144:	4b02      	ldr	r3, [pc, #8]	; (8001150 <setup_synth_engine+0xc>)
 8001146:	ed83 0b00 	vstr	d0, [r3]
 800114a:	4b02      	ldr	r3, [pc, #8]	; (8001154 <setup_synth_engine+0x10>)
 800114c:	6018      	str	r0, [r3, #0]
 800114e:	4770      	bx	lr
 8001150:	20000218 	.word	0x20000218
 8001154:	2000020c 	.word	0x2000020c

08001158 <setup_synth_pwm_output_handler>:
 8001158:	4b03      	ldr	r3, [pc, #12]	; (8001168 <setup_synth_pwm_output_handler+0x10>)
 800115a:	4a04      	ldr	r2, [pc, #16]	; (800116c <setup_synth_pwm_output_handler+0x14>)
 800115c:	6018      	str	r0, [r3, #0]
 800115e:	4b04      	ldr	r3, [pc, #16]	; (8001170 <setup_synth_pwm_output_handler+0x18>)
 8001160:	7019      	strb	r1, [r3, #0]
 8001162:	4b04      	ldr	r3, [pc, #16]	; (8001174 <setup_synth_pwm_output_handler+0x1c>)
 8001164:	601a      	str	r2, [r3, #0]
 8001166:	4770      	bx	lr
 8001168:	200000d0 	.word	0x200000d0
 800116c:	080010fd 	.word	0x080010fd
 8001170:	20000210 	.word	0x20000210
 8001174:	200000cc 	.word	0x200000cc

08001178 <setWave>:
 8001178:	2901      	cmp	r1, #1
 800117a:	4b03      	ldr	r3, [pc, #12]	; (8001188 <setWave+0x10>)
 800117c:	bf0c      	ite	eq
 800117e:	4a03      	ldreq	r2, [pc, #12]	; (800118c <setWave+0x14>)
 8001180:	4a03      	ldrne	r2, [pc, #12]	; (8001190 <setWave+0x18>)
 8001182:	f843 2020 	str.w	r2, [r3, r0, lsl #2]
 8001186:	4770      	bx	lr
 8001188:	200001f8 	.word	0x200001f8
 800118c:	08004f12 	.word	0x08004f12
 8001190:	08004712 	.word	0x08004712

08001194 <pause>:
 8001194:	4b04      	ldr	r3, [pc, #16]	; (80011a8 <pause+0x14>)
 8001196:	2200      	movs	r2, #0
 8001198:	f823 2010 	strh.w	r2, [r3, r0, lsl #1]
 800119c:	4b03      	ldr	r3, [pc, #12]	; (80011ac <pause+0x18>)
 800119e:	221a      	movs	r2, #26
 80011a0:	f823 2010 	strh.w	r2, [r3, r0, lsl #1]
 80011a4:	4770      	bx	lr
 80011a6:	bf00      	nop
 80011a8:	20000018 	.word	0x20000018
 80011ac:	20000030 	.word	0x20000030

080011b0 <setEnvelope>:
 80011b0:	2903      	cmp	r1, #3
 80011b2:	4b08      	ldr	r3, [pc, #32]	; (80011d4 <setEnvelope+0x24>)
 80011b4:	d007      	beq.n	80011c6 <setEnvelope+0x16>
 80011b6:	2904      	cmp	r1, #4
 80011b8:	d007      	beq.n	80011ca <setEnvelope+0x1a>
 80011ba:	2902      	cmp	r1, #2
 80011bc:	d107      	bne.n	80011ce <setEnvelope+0x1e>
 80011be:	4a06      	ldr	r2, [pc, #24]	; (80011d8 <setEnvelope+0x28>)
 80011c0:	f843 2020 	str.w	r2, [r3, r0, lsl #2]
 80011c4:	4770      	bx	lr
 80011c6:	4a05      	ldr	r2, [pc, #20]	; (80011dc <setEnvelope+0x2c>)
 80011c8:	e7fa      	b.n	80011c0 <setEnvelope+0x10>
 80011ca:	4a05      	ldr	r2, [pc, #20]	; (80011e0 <setEnvelope+0x30>)
 80011cc:	e7f8      	b.n	80011c0 <setEnvelope+0x10>
 80011ce:	4a05      	ldr	r2, [pc, #20]	; (80011e4 <setEnvelope+0x34>)
 80011d0:	e7f6      	b.n	80011c0 <setEnvelope+0x10>
 80011d2:	bf00      	nop
 80011d4:	200001e8 	.word	0x200001e8
 80011d8:	08004300 	.word	0x08004300
 80011dc:	08004406 	.word	0x08004406
 80011e0:	0800450c 	.word	0x0800450c
 80011e4:	080041fc 	.word	0x080041fc

080011e8 <setupVoice>:
 80011e8:	b570      	push	{r4, r5, r6, lr}
 80011ea:	461d      	mov	r5, r3
 80011ec:	4616      	mov	r6, r2
 80011ee:	f7ff ffc3 	bl	8001178 <setWave>
 80011f2:	4b0c      	ldr	r3, [pc, #48]	; (8001224 <setupVoice+0x3c>)
 80011f4:	f833 2016 	ldrh.w	r2, [r3, r6, lsl #1]
 80011f8:	4b0b      	ldr	r3, [pc, #44]	; (8001228 <setupVoice+0x40>)
 80011fa:	4629      	mov	r1, r5
 80011fc:	f823 2010 	strh.w	r2, [r3, r0, lsl #1]
 8001200:	f7ff ffd6 	bl	80011b0 <setEnvelope>
 8001204:	4b09      	ldr	r3, [pc, #36]	; (800122c <setupVoice+0x44>)
 8001206:	f89d 2010 	ldrb.w	r2, [sp, #16]
 800120a:	f833 2012 	ldrh.w	r2, [r3, r2, lsl #1]
 800120e:	4b08      	ldr	r3, [pc, #32]	; (8001230 <setupVoice+0x48>)
 8001210:	f823 2010 	strh.w	r2, [r3, r0, lsl #1]
 8001214:	f8bd 3014 	ldrh.w	r3, [sp, #20]
 8001218:	4a06      	ldr	r2, [pc, #24]	; (8001234 <setupVoice+0x4c>)
 800121a:	3b40      	subs	r3, #64	; 0x40
 800121c:	b21b      	sxth	r3, r3
 800121e:	f822 3010 	strh.w	r3, [r2, r0, lsl #1]
 8001222:	bd70      	pop	{r4, r5, r6, pc}
 8001224:	08004612 	.word	0x08004612
 8001228:	20000030 	.word	0x20000030
 800122c:	080040fc 	.word	0x080040fc
 8001230:	20000010 	.word	0x20000010
 8001234:	20000028 	.word	0x20000028

08001238 <mTrigger>:
 8001238:	4b12      	ldr	r3, [pc, #72]	; (8001284 <mTrigger+0x4c>)
 800123a:	f833 2011 	ldrh.w	r2, [r3, r1, lsl #1]
 800123e:	4b12      	ldr	r3, [pc, #72]	; (8001288 <mTrigger+0x50>)
 8001240:	4912      	ldr	r1, [pc, #72]	; (800128c <mTrigger+0x54>)
 8001242:	b530      	push	{r4, r5, lr}
 8001244:	f823 2010 	strh.w	r2, [r3, r0, lsl #1]
 8001248:	2200      	movs	r2, #0
 800124a:	f821 2010 	strh.w	r2, [r1, r0, lsl #1]
 800124e:	f833 2010 	ldrh.w	r2, [r3, r0, lsl #1]
 8001252:	f833 4010 	ldrh.w	r4, [r3, r0, lsl #1]
 8001256:	f831 3010 	ldrh.w	r3, [r1, r0, lsl #1]
 800125a:	490d      	ldr	r1, [pc, #52]	; (8001290 <mTrigger+0x58>)
 800125c:	f3c3 1389 	ubfx	r3, r3, #6, #10
 8001260:	f831 5010 	ldrh.w	r5, [r1, r0, lsl #1]
 8001264:	490b      	ldr	r1, [pc, #44]	; (8001294 <mTrigger+0x5c>)
 8001266:	f3c4 1089 	ubfx	r0, r4, #6, #10
 800126a:	4343      	muls	r3, r0
 800126c:	7809      	ldrb	r1, [r1, #0]
 800126e:	11db      	asrs	r3, r3, #7
 8001270:	fb13 f305 	smulbb	r3, r3, r5
 8001274:	fa13 f382 	uxtah	r3, r3, r2
 8001278:	b2c9      	uxtb	r1, r1
 800127a:	4a07      	ldr	r2, [pc, #28]	; (8001298 <mTrigger+0x60>)
 800127c:	b29b      	uxth	r3, r3
 800127e:	f822 3011 	strh.w	r3, [r2, r1, lsl #1]
 8001282:	bd30      	pop	{r4, r5, pc}
 8001284:	08004612 	.word	0x08004612
 8001288:	20000030 	.word	0x20000030
 800128c:	20000018 	.word	0x20000018
 8001290:	20000028 	.word	0x20000028
 8001294:	20000038 	.word	0x20000038
 8001298:	20000020 	.word	0x20000020

0800129c <synth_suspend>:
 800129c:	4b03      	ldr	r3, [pc, #12]	; (80012ac <synth_suspend+0x10>)
 800129e:	681b      	ldr	r3, [r3, #0]
 80012a0:	681a      	ldr	r2, [r3, #0]
 80012a2:	6813      	ldr	r3, [r2, #0]
 80012a4:	f023 0301 	bic.w	r3, r3, #1
 80012a8:	6013      	str	r3, [r2, #0]
 80012aa:	4770      	bx	lr
 80012ac:	2000020c 	.word	0x2000020c

080012b0 <synth_resume>:
 80012b0:	4b03      	ldr	r3, [pc, #12]	; (80012c0 <synth_resume+0x10>)
 80012b2:	681b      	ldr	r3, [r3, #0]
 80012b4:	681a      	ldr	r2, [r3, #0]
 80012b6:	6813      	ldr	r3, [r2, #0]
 80012b8:	f043 0301 	orr.w	r3, r3, #1
 80012bc:	6013      	str	r3, [r2, #0]
 80012be:	4770      	bx	lr
 80012c0:	2000020c 	.word	0x2000020c

080012c4 <update_note>:
 80012c4:	e92d 4ff0 	stmdb	sp!, {r4, r5, r6, r7, r8, r9, sl, fp, lr}
 80012c8:	ed2d 8b02 	vpush	{d8}
 80012cc:	4b8a      	ldr	r3, [pc, #552]	; (80014f8 <update_note+0x234>)
 80012ce:	b087      	sub	sp, #28
 80012d0:	791a      	ldrb	r2, [r3, #4]
 80012d2:	f88d 2014 	strb.w	r2, [sp, #20]
 80012d6:	4607      	mov	r7, r0
 80012d8:	6818      	ldr	r0, [r3, #0]
 80012da:	f833 2f05 	ldrh.w	r2, [r3, #5]!
 80012de:	9004      	str	r0, [sp, #16]
 80012e0:	789b      	ldrb	r3, [r3, #2]
 80012e2:	f88d 300e 	strb.w	r3, [sp, #14]
 80012e6:	eb07 0441 	add.w	r4, r7, r1, lsl #1
 80012ea:	1c8b      	adds	r3, r1, #2
 80012ec:	f8ad 200c 	strh.w	r2, [sp, #12]
 80012f0:	f857 6023 	ldr.w	r6, [r7, r3, lsl #2]
 80012f4:	f8b4 3060 	ldrh.w	r3, [r4, #96]	; 0x60
 80012f8:	b29b      	uxth	r3, r3
 80012fa:	460d      	mov	r5, r1
 80012fc:	5cf0      	ldrb	r0, [r6, r3]
 80012fe:	2800      	cmp	r0, #0
 8001300:	f000 80e6 	beq.w	80014d0 <update_note+0x20c>
 8001304:	2300      	movs	r3, #0
 8001306:	461a      	mov	r2, r3
 8001308:	469b      	mov	fp, r3
 800130a:	469a      	mov	sl, r3
 800130c:	4699      	mov	r9, r3
 800130e:	9300      	str	r3, [sp, #0]
 8001310:	f8b4 1060 	ldrh.w	r1, [r4, #96]	; 0x60
 8001314:	b289      	uxth	r1, r1
 8001316:	5c71      	ldrb	r1, [r6, r1]
 8001318:	292c      	cmp	r1, #44	; 0x2c
 800131a:	d163      	bne.n	80013e4 <update_note+0x120>
 800131c:	a804      	add	r0, sp, #16
 800131e:	f897 8000 	ldrb.w	r8, [r7]
 8001322:	f001 fb79 	bl	8002a18 <atoi>
 8001326:	fa5f f888 	uxtb.w	r8, r8
 800132a:	9001      	str	r0, [sp, #4]
 800132c:	4640      	mov	r0, r8
 800132e:	f7ff f8b5 	bl	800049c <__aeabi_ui2d>
 8001332:	9b01      	ldr	r3, [sp, #4]
 8001334:	ec41 0b18 	vmov	d8, r0, r1
 8001338:	4618      	mov	r0, r3
 800133a:	f7ff f8bf 	bl	80004bc <__aeabi_i2d>
 800133e:	4602      	mov	r2, r0
 8001340:	460b      	mov	r3, r1
 8001342:	ec51 0b18 	vmov	r0, r1, d8
 8001346:	f7ff fa4d 	bl	80007e4 <__aeabi_ddiv>
 800134a:	eb07 08c5 	add.w	r8, r7, r5, lsl #3
 800134e:	f1bb 0f2e 	cmp.w	fp, #46	; 0x2e
 8001352:	e9c8 0110 	strd	r0, r1, [r8, #64]	; 0x40
 8001356:	d107      	bne.n	8001368 <update_note+0xa4>
 8001358:	e9d8 0110 	ldrd	r0, r1, [r8, #64]	; 0x40
 800135c:	4b67      	ldr	r3, [pc, #412]	; (80014fc <update_note+0x238>)
 800135e:	2200      	movs	r2, #0
 8001360:	f7ff f916 	bl	8000590 <__aeabi_dmul>
 8001364:	e9c8 0110 	strd	r0, r1, [r8, #64]	; 0x40
 8001368:	f1aa 0a61 	sub.w	sl, sl, #97	; 0x61
 800136c:	443d      	add	r5, r7
 800136e:	f1ba 0f0f 	cmp.w	sl, #15
 8001372:	d87b      	bhi.n	800146c <update_note+0x1a8>
 8001374:	e8df f00a 	tbb	[pc, sl]
 8001378:	b5b3b178 	.word	0xb5b3b178
 800137c:	7abbb9b7 	.word	0x7abbb9b7
 8001380:	7a7a7a7a 	.word	0x7a7a7a7a
 8001384:	bd7a7a7a 	.word	0xbd7a7a7a
 8001388:	f8b4 1060 	ldrh.w	r1, [r4, #96]	; 0x60
 800138c:	b289      	uxth	r1, r1
 800138e:	5c71      	ldrb	r1, [r6, r1]
 8001390:	292e      	cmp	r1, #46	; 0x2e
 8001392:	f8b4 1060 	ldrh.w	r1, [r4, #96]	; 0x60
 8001396:	b289      	uxth	r1, r1
 8001398:	d102      	bne.n	80013a0 <update_note+0xdc>
 800139a:	f816 b001 	ldrb.w	fp, [r6, r1]
 800139e:	e05c      	b.n	800145a <update_note+0x196>
 80013a0:	5c71      	ldrb	r1, [r6, r1]
 80013a2:	295f      	cmp	r1, #95	; 0x5f
 80013a4:	f8b4 1060 	ldrh.w	r1, [r4, #96]	; 0x60
 80013a8:	b289      	uxth	r1, r1
 80013aa:	5c71      	ldrb	r1, [r6, r1]
 80013ac:	d101      	bne.n	80013b2 <update_note+0xee>
 80013ae:	9100      	str	r1, [sp, #0]
 80013b0:	e053      	b.n	800145a <update_note+0x196>
 80013b2:	2923      	cmp	r1, #35	; 0x23
 80013b4:	f8b4 1060 	ldrh.w	r1, [r4, #96]	; 0x60
 80013b8:	b289      	uxth	r1, r1
 80013ba:	d102      	bne.n	80013c2 <update_note+0xfe>
 80013bc:	f816 9001 	ldrb.w	r9, [r6, r1]
 80013c0:	e04b      	b.n	800145a <update_note+0x196>
 80013c2:	5c70      	ldrb	r0, [r6, r1]
 80013c4:	a906      	add	r1, sp, #24
 80013c6:	f1ba 0f00 	cmp.w	sl, #0
 80013ca:	d005      	beq.n	80013d8 <update_note+0x114>
 80013cc:	4419      	add	r1, r3
 80013ce:	3301      	adds	r3, #1
 80013d0:	f801 0c0c 	strb.w	r0, [r1, #-12]
 80013d4:	b2db      	uxtb	r3, r3
 80013d6:	e040      	b.n	800145a <update_note+0x196>
 80013d8:	4411      	add	r1, r2
 80013da:	3201      	adds	r2, #1
 80013dc:	f801 0c08 	strb.w	r0, [r1, #-8]
 80013e0:	b2d2      	uxtb	r2, r2
 80013e2:	e03a      	b.n	800145a <update_note+0x196>
 80013e4:	f8b4 1060 	ldrh.w	r1, [r4, #96]	; 0x60
 80013e8:	b289      	uxth	r1, r1
 80013ea:	5c71      	ldrb	r1, [r6, r1]
 80013ec:	2900      	cmp	r1, #0
 80013ee:	d095      	beq.n	800131c <update_note+0x58>
 80013f0:	f8b4 1060 	ldrh.w	r1, [r4, #96]	; 0x60
 80013f4:	b289      	uxth	r1, r1
 80013f6:	5c71      	ldrb	r1, [r6, r1]
 80013f8:	2961      	cmp	r1, #97	; 0x61
 80013fa:	d029      	beq.n	8001450 <update_note+0x18c>
 80013fc:	f8b4 1060 	ldrh.w	r1, [r4, #96]	; 0x60
 8001400:	b289      	uxth	r1, r1
 8001402:	5c71      	ldrb	r1, [r6, r1]
 8001404:	2962      	cmp	r1, #98	; 0x62
 8001406:	d023      	beq.n	8001450 <update_note+0x18c>
 8001408:	f8b4 1060 	ldrh.w	r1, [r4, #96]	; 0x60
 800140c:	b289      	uxth	r1, r1
 800140e:	5c71      	ldrb	r1, [r6, r1]
 8001410:	2963      	cmp	r1, #99	; 0x63
 8001412:	d01d      	beq.n	8001450 <update_note+0x18c>
 8001414:	f8b4 1060 	ldrh.w	r1, [r4, #96]	; 0x60
 8001418:	b289      	uxth	r1, r1
 800141a:	5c71      	ldrb	r1, [r6, r1]
 800141c:	2964      	cmp	r1, #100	; 0x64
 800141e:	d017      	beq.n	8001450 <update_note+0x18c>
 8001420:	f8b4 1060 	ldrh.w	r1, [r4, #96]	; 0x60
 8001424:	b289      	uxth	r1, r1
 8001426:	5c71      	ldrb	r1, [r6, r1]
 8001428:	2965      	cmp	r1, #101	; 0x65
 800142a:	d011      	beq.n	8001450 <update_note+0x18c>
 800142c:	f8b4 1060 	ldrh.w	r1, [r4, #96]	; 0x60
 8001430:	b289      	uxth	r1, r1
 8001432:	5c71      	ldrb	r1, [r6, r1]
 8001434:	2966      	cmp	r1, #102	; 0x66
 8001436:	d00b      	beq.n	8001450 <update_note+0x18c>
 8001438:	f8b4 1060 	ldrh.w	r1, [r4, #96]	; 0x60
 800143c:	b289      	uxth	r1, r1
 800143e:	5c71      	ldrb	r1, [r6, r1]
 8001440:	2967      	cmp	r1, #103	; 0x67
 8001442:	d005      	beq.n	8001450 <update_note+0x18c>
 8001444:	f8b4 1060 	ldrh.w	r1, [r4, #96]	; 0x60
 8001448:	b289      	uxth	r1, r1
 800144a:	5c71      	ldrb	r1, [r6, r1]
 800144c:	2970      	cmp	r1, #112	; 0x70
 800144e:	d19b      	bne.n	8001388 <update_note+0xc4>
 8001450:	f8b4 1060 	ldrh.w	r1, [r4, #96]	; 0x60
 8001454:	b289      	uxth	r1, r1
 8001456:	f816 a001 	ldrb.w	sl, [r6, r1]
 800145a:	f8b4 1060 	ldrh.w	r1, [r4, #96]	; 0x60
 800145e:	3101      	adds	r1, #1
 8001460:	b289      	uxth	r1, r1
 8001462:	f8a4 1060 	strh.w	r1, [r4, #96]	; 0x60
 8001466:	e753      	b.n	8001310 <update_note+0x4c>
 8001468:	2321      	movs	r3, #33	; 0x21
 800146a:	762b      	strb	r3, [r5, #24]
 800146c:	7e2b      	ldrb	r3, [r5, #24]
 800146e:	b313      	cbz	r3, 80014b6 <update_note+0x1f2>
 8001470:	9b00      	ldr	r3, [sp, #0]
 8001472:	2b5f      	cmp	r3, #95	; 0x5f
 8001474:	bf01      	itttt	eq
 8001476:	7e2b      	ldrbeq	r3, [r5, #24]
 8001478:	f103 33ff 	addeq.w	r3, r3, #4294967295	; 0xffffffff
 800147c:	b2db      	uxtbeq	r3, r3
 800147e:	762b      	strbeq	r3, [r5, #24]
 8001480:	f1b9 0f23 	cmp.w	r9, #35	; 0x23
 8001484:	bf01      	itttt	eq
 8001486:	7e2b      	ldrbeq	r3, [r5, #24]
 8001488:	3301      	addeq	r3, #1
 800148a:	b2db      	uxtbeq	r3, r3
 800148c:	762b      	strbeq	r3, [r5, #24]
 800148e:	f89d 300c 	ldrb.w	r3, [sp, #12]
 8001492:	b143      	cbz	r3, 80014a6 <update_note+0x1e2>
 8001494:	a803      	add	r0, sp, #12
 8001496:	f001 fabf 	bl	8002a18 <atoi>
 800149a:	7e2b      	ldrb	r3, [r5, #24]
 800149c:	220c      	movs	r2, #12
 800149e:	fb02 3000 	mla	r0, r2, r0, r3
 80014a2:	b2c0      	uxtb	r0, r0
 80014a4:	7628      	strb	r0, [r5, #24]
 80014a6:	793b      	ldrb	r3, [r7, #4]
 80014a8:	7e2a      	ldrb	r2, [r5, #24]
 80014aa:	3b01      	subs	r3, #1
 80014ac:	210c      	movs	r1, #12
 80014ae:	fb01 2303 	mla	r3, r1, r3, r2
 80014b2:	b2db      	uxtb	r3, r3
 80014b4:	762b      	strb	r3, [r5, #24]
 80014b6:	f8b4 3060 	ldrh.w	r3, [r4, #96]	; 0x60
 80014ba:	b29b      	uxth	r3, r3
 80014bc:	2001      	movs	r0, #1
 80014be:	5cf3      	ldrb	r3, [r6, r3]
 80014c0:	2b2c      	cmp	r3, #44	; 0x2c
 80014c2:	bf01      	itttt	eq
 80014c4:	f8b4 3060 	ldrheq.w	r3, [r4, #96]	; 0x60
 80014c8:	3301      	addeq	r3, #1
 80014ca:	b29b      	uxtheq	r3, r3
 80014cc:	f8a4 3060 	strheq.w	r3, [r4, #96]	; 0x60
 80014d0:	b007      	add	sp, #28
 80014d2:	ecbd 8b02 	vpop	{d8}
 80014d6:	e8bd 8ff0 	ldmia.w	sp!, {r4, r5, r6, r7, r8, r9, sl, fp, pc}
 80014da:	2323      	movs	r3, #35	; 0x23
 80014dc:	e7c5      	b.n	800146a <update_note+0x1a6>
 80014de:	2318      	movs	r3, #24
 80014e0:	e7c3      	b.n	800146a <update_note+0x1a6>
 80014e2:	231a      	movs	r3, #26
 80014e4:	e7c1      	b.n	800146a <update_note+0x1a6>
 80014e6:	231c      	movs	r3, #28
 80014e8:	e7bf      	b.n	800146a <update_note+0x1a6>
 80014ea:	231d      	movs	r3, #29
 80014ec:	e7bd      	b.n	800146a <update_note+0x1a6>
 80014ee:	231f      	movs	r3, #31
 80014f0:	e7bb      	b.n	800146a <update_note+0x1a6>
 80014f2:	2300      	movs	r3, #0
 80014f4:	e7b9      	b.n	800146a <update_note+0x1a6>
 80014f6:	bf00      	nop
 80014f8:	08002bd4 	.word	0x08002bd4
 80014fc:	3ff80000 	.word	0x3ff80000

08001500 <voice_update>:
 8001500:	b5f7      	push	{r0, r1, r2, r4, r5, r6, r7, lr}
 8001502:	4c39      	ldr	r4, [pc, #228]	; (80015e8 <voice_update+0xe8>)
 8001504:	4605      	mov	r5, r0
 8001506:	4601      	mov	r1, r0
 8001508:	4620      	mov	r0, r4
 800150a:	f7ff fedb 	bl	80012c4 <update_note>
 800150e:	2800      	cmp	r0, #0
 8001510:	d05b      	beq.n	80015ca <voice_update+0xca>
 8001512:	f105 0608 	add.w	r6, r5, #8
 8001516:	eb04 01c6 	add.w	r1, r4, r6, lsl #3
 800151a:	e9d1 0100 	ldrd	r0, r1, [r1]
 800151e:	4b33      	ldr	r3, [pc, #204]	; (80015ec <voice_update+0xec>)
 8001520:	2200      	movs	r2, #0
 8001522:	f7ff fa9d 	bl	8000a60 <__aeabi_dcmpeq>
 8001526:	b108      	cbz	r0, 800152c <voice_update+0x2c>
 8001528:	2302      	movs	r3, #2
 800152a:	9301      	str	r3, [sp, #4]
 800152c:	8860      	ldrh	r0, [r4, #2]
 800152e:	b280      	uxth	r0, r0
 8001530:	f7fe ffc4 	bl	80004bc <__aeabi_i2d>
 8001534:	eb04 06c6 	add.w	r6, r4, r6, lsl #3
 8001538:	e9d6 6700 	ldrd	r6, r7, [r6]
 800153c:	4602      	mov	r2, r0
 800153e:	460b      	mov	r3, r1
 8001540:	2000      	movs	r0, #0
 8001542:	492b      	ldr	r1, [pc, #172]	; (80015f0 <voice_update+0xf0>)
 8001544:	f7ff f94e 	bl	80007e4 <__aeabi_ddiv>
 8001548:	4632      	mov	r2, r6
 800154a:	463b      	mov	r3, r7
 800154c:	f7ff f820 	bl	8000590 <__aeabi_dmul>
 8001550:	a321      	add	r3, pc, #132	; (adr r3, 80015d8 <voice_update+0xd8>)
 8001552:	e9d3 2300 	ldrd	r2, r3, [r3]
 8001556:	f7ff f81b 	bl	8000590 <__aeabi_dmul>
 800155a:	f7ff fab3 	bl	8000ac4 <__aeabi_d2uiz>
 800155e:	4e25      	ldr	r6, [pc, #148]	; (80015f4 <voice_update+0xf4>)
 8001560:	6030      	str	r0, [r6, #0]
 8001562:	6830      	ldr	r0, [r6, #0]
 8001564:	f7fe ff9a 	bl	800049c <__aeabi_ui2d>
 8001568:	a31d      	add	r3, pc, #116	; (adr r3, 80015e0 <voice_update+0xe0>)
 800156a:	e9d3 2300 	ldrd	r2, r3, [r3]
 800156e:	f7ff f80f 	bl	8000590 <__aeabi_dmul>
 8001572:	2200      	movs	r2, #0
 8001574:	4b20      	ldr	r3, [pc, #128]	; (80015f8 <voice_update+0xf8>)
 8001576:	f7ff f935 	bl	80007e4 <__aeabi_ddiv>
 800157a:	f7ff faa3 	bl	8000ac4 <__aeabi_d2uiz>
 800157e:	1dab      	adds	r3, r5, #6
 8001580:	eb04 0383 	add.w	r3, r4, r3, lsl #2
 8001584:	6058      	str	r0, [r3, #4]
 8001586:	6830      	ldr	r0, [r6, #0]
 8001588:	f7fe ff88 	bl	800049c <__aeabi_ui2d>
 800158c:	4b1b      	ldr	r3, [pc, #108]	; (80015fc <voice_update+0xfc>)
 800158e:	2200      	movs	r2, #0
 8001590:	f7fe fffe 	bl	8000590 <__aeabi_dmul>
 8001594:	4b18      	ldr	r3, [pc, #96]	; (80015f8 <voice_update+0xf8>)
 8001596:	2200      	movs	r2, #0
 8001598:	f7ff f924 	bl	80007e4 <__aeabi_ddiv>
 800159c:	f7ff fa92 	bl	8000ac4 <__aeabi_d2uiz>
 80015a0:	f105 030a 	add.w	r3, r5, #10
 80015a4:	eb04 0383 	add.w	r3, r4, r3, lsl #2
 80015a8:	442c      	add	r4, r5
 80015aa:	6058      	str	r0, [r3, #4]
 80015ac:	7e23      	ldrb	r3, [r4, #24]
 80015ae:	b133      	cbz	r3, 80015be <voice_update+0xbe>
 80015b0:	7e21      	ldrb	r1, [r4, #24]
 80015b2:	4628      	mov	r0, r5
 80015b4:	b003      	add	sp, #12
 80015b6:	e8bd 40f0 	ldmia.w	sp!, {r4, r5, r6, r7, lr}
 80015ba:	f7ff be3d 	b.w	8001238 <mTrigger>
 80015be:	4628      	mov	r0, r5
 80015c0:	b003      	add	sp, #12
 80015c2:	e8bd 40f0 	ldmia.w	sp!, {r4, r5, r6, r7, lr}
 80015c6:	f7ff bde5 	b.w	8001194 <pause>
 80015ca:	4b0d      	ldr	r3, [pc, #52]	; (8001600 <voice_update+0x100>)
 80015cc:	7018      	strb	r0, [r3, #0]
 80015ce:	b003      	add	sp, #12
 80015d0:	e8bd 40f0 	ldmia.w	sp!, {r4, r5, r6, r7, lr}
 80015d4:	f7ff be62 	b.w	800129c <synth_suspend>
 80015d8:	00000000 	.word	0x00000000
 80015dc:	40d38800 	.word	0x40d38800
 80015e0:	00000000 	.word	0x00000000
 80015e4:	4057c000 	.word	0x4057c000
 80015e8:	20000228 	.word	0x20000228
 80015ec:	3fd00000 	.word	0x3fd00000
 80015f0:	404e0000 	.word	0x404e0000
 80015f4:	20000220 	.word	0x20000220
 80015f8:	40590000 	.word	0x40590000
 80015fc:	40140000 	.word	0x40140000
 8001600:	20000224 	.word	0x20000224

08001604 <initialize_song_engine>:
 8001604:	b573      	push	{r0, r1, r4, r5, r6, lr}
 8001606:	f7ff fd9d 	bl	8001144 <setup_synth_engine>
 800160a:	2400      	movs	r4, #0
 800160c:	2640      	movs	r6, #64	; 0x40
 800160e:	257f      	movs	r5, #127	; 0x7f
 8001610:	2300      	movs	r3, #0
 8001612:	b2e0      	uxtb	r0, r4
 8001614:	e9cd 5600 	strd	r5, r6, [sp]
 8001618:	461a      	mov	r2, r3
 800161a:	4619      	mov	r1, r3
 800161c:	3401      	adds	r4, #1
 800161e:	f7ff fde3 	bl	80011e8 <setupVoice>
 8001622:	2c04      	cmp	r4, #4
 8001624:	d1f4      	bne.n	8001610 <initialize_song_engine+0xc>
 8001626:	4b04      	ldr	r3, [pc, #16]	; (8001638 <initialize_song_engine+0x34>)
 8001628:	2200      	movs	r2, #0
 800162a:	701a      	strb	r2, [r3, #0]
 800162c:	b002      	add	sp, #8
 800162e:	e8bd 4070 	ldmia.w	sp!, {r4, r5, r6, lr}
 8001632:	f7ff be33 	b.w	800129c <synth_suspend>
 8001636:	bf00      	nop
 8001638:	20000224 	.word	0x20000224

0800163c <load_song>:
 800163c:	b084      	sub	sp, #16
 800163e:	b508      	push	{r3, lr}
 8001640:	f10d 0c08 	add.w	ip, sp, #8
 8001644:	e88c 000f 	stmia.w	ip, {r0, r1, r2, r3}
 8001648:	4b0c      	ldr	r3, [pc, #48]	; (800167c <load_song+0x40>)
 800164a:	4661      	mov	r1, ip
 800164c:	4618      	mov	r0, r3
 800164e:	2268      	movs	r2, #104	; 0x68
 8001650:	f001 fa10 	bl	8002a74 <memcpy>
 8001654:	2220      	movs	r2, #32
 8001656:	2100      	movs	r1, #0
 8001658:	3060      	adds	r0, #96	; 0x60
 800165a:	f001 fa19 	bl	8002a90 <memset>
 800165e:	2000      	movs	r0, #0
 8001660:	f7ff ff4e 	bl	8001500 <voice_update>
 8001664:	2001      	movs	r0, #1
 8001666:	f7ff ff4b 	bl	8001500 <voice_update>
 800166a:	2002      	movs	r0, #2
 800166c:	f7ff ff48 	bl	8001500 <voice_update>
 8001670:	e8bd 4008 	ldmia.w	sp!, {r3, lr}
 8001674:	2003      	movs	r0, #3
 8001676:	b004      	add	sp, #16
 8001678:	f7ff bf42 	b.w	8001500 <voice_update>
 800167c:	20000228 	.word	0x20000228

08001680 <set_pwm_output>:
 8001680:	f7ff bd6a 	b.w	8001158 <setup_synth_pwm_output_handler>

08001684 <play_song>:
 8001684:	b508      	push	{r3, lr}
 8001686:	f7ff fe13 	bl	80012b0 <synth_resume>
 800168a:	4b02      	ldr	r3, [pc, #8]	; (8001694 <play_song+0x10>)
 800168c:	2201      	movs	r2, #1
 800168e:	701a      	strb	r2, [r3, #0]
 8001690:	bd08      	pop	{r3, pc}
 8001692:	bf00      	nop
 8001694:	20000224 	.word	0x20000224

08001698 <stop_song>:
 8001698:	b508      	push	{r3, lr}
 800169a:	f7ff fdff 	bl	800129c <synth_suspend>
 800169e:	2220      	movs	r2, #32
 80016a0:	2100      	movs	r1, #0
 80016a2:	4809      	ldr	r0, [pc, #36]	; (80016c8 <stop_song+0x30>)
 80016a4:	f001 f9f4 	bl	8002a90 <memset>
 80016a8:	2000      	movs	r0, #0
 80016aa:	f7ff ff29 	bl	8001500 <voice_update>
 80016ae:	2001      	movs	r0, #1
 80016b0:	f7ff ff26 	bl	8001500 <voice_update>
 80016b4:	2002      	movs	r0, #2
 80016b6:	f7ff ff23 	bl	8001500 <voice_update>
 80016ba:	2003      	movs	r0, #3
 80016bc:	f7ff ff20 	bl	8001500 <voice_update>
 80016c0:	4b02      	ldr	r3, [pc, #8]	; (80016cc <stop_song+0x34>)
 80016c2:	2200      	movs	r2, #0
 80016c4:	701a      	strb	r2, [r3, #0]
 80016c6:	bd08      	pop	{r3, pc}
 80016c8:	20000288 	.word	0x20000288
 80016cc:	20000224 	.word	0x20000224

080016d0 <get_song_status>:
 80016d0:	4b01      	ldr	r3, [pc, #4]	; (80016d8 <get_song_status+0x8>)
 80016d2:	7818      	ldrb	r0, [r3, #0]
 80016d4:	4770      	bx	lr
 80016d6:	bf00      	nop
 80016d8:	20000224 	.word	0x20000224

080016dc <HAL_MspInit>:
 80016dc:	b082      	sub	sp, #8
 80016de:	4b0c      	ldr	r3, [pc, #48]	; (8001710 <HAL_MspInit+0x34>)
 80016e0:	2100      	movs	r1, #0
 80016e2:	9100      	str	r1, [sp, #0]
 80016e4:	6c5a      	ldr	r2, [r3, #68]	; 0x44
 80016e6:	f442 4280 	orr.w	r2, r2, #16384	; 0x4000
 80016ea:	645a      	str	r2, [r3, #68]	; 0x44
 80016ec:	6c5a      	ldr	r2, [r3, #68]	; 0x44
 80016ee:	f402 4280 	and.w	r2, r2, #16384	; 0x4000
 80016f2:	9200      	str	r2, [sp, #0]
 80016f4:	9a00      	ldr	r2, [sp, #0]
 80016f6:	9101      	str	r1, [sp, #4]
 80016f8:	6c1a      	ldr	r2, [r3, #64]	; 0x40
 80016fa:	f042 5280 	orr.w	r2, r2, #268435456	; 0x10000000
 80016fe:	641a      	str	r2, [r3, #64]	; 0x40
 8001700:	6c1b      	ldr	r3, [r3, #64]	; 0x40
 8001702:	f003 5380 	and.w	r3, r3, #268435456	; 0x10000000
 8001706:	9301      	str	r3, [sp, #4]
 8001708:	9b01      	ldr	r3, [sp, #4]
 800170a:	b002      	add	sp, #8
 800170c:	4770      	bx	lr
 800170e:	bf00      	nop
 8001710:	40023800 	.word	0x40023800

08001714 <HAL_DAC_MspInit>:
 8001714:	b510      	push	{r4, lr}
 8001716:	4604      	mov	r4, r0
 8001718:	b088      	sub	sp, #32
 800171a:	2214      	movs	r2, #20
 800171c:	2100      	movs	r1, #0
 800171e:	a803      	add	r0, sp, #12
 8001720:	f001 f9b6 	bl	8002a90 <memset>
 8001724:	6822      	ldr	r2, [r4, #0]
 8001726:	4b12      	ldr	r3, [pc, #72]	; (8001770 <HAL_DAC_MspInit+0x5c>)
 8001728:	429a      	cmp	r2, r3
 800172a:	d11f      	bne.n	800176c <HAL_DAC_MspInit+0x58>
 800172c:	f503 33e2 	add.w	r3, r3, #115712	; 0x1c400
 8001730:	2200      	movs	r2, #0
 8001732:	9201      	str	r2, [sp, #4]
 8001734:	6c19      	ldr	r1, [r3, #64]	; 0x40
 8001736:	480f      	ldr	r0, [pc, #60]	; (8001774 <HAL_DAC_MspInit+0x60>)
 8001738:	f041 5100 	orr.w	r1, r1, #536870912	; 0x20000000
 800173c:	6419      	str	r1, [r3, #64]	; 0x40
 800173e:	6c19      	ldr	r1, [r3, #64]	; 0x40
 8001740:	f001 5100 	and.w	r1, r1, #536870912	; 0x20000000
 8001744:	9101      	str	r1, [sp, #4]
 8001746:	9901      	ldr	r1, [sp, #4]
 8001748:	9202      	str	r2, [sp, #8]
 800174a:	6b19      	ldr	r1, [r3, #48]	; 0x30
 800174c:	f041 0101 	orr.w	r1, r1, #1
 8001750:	6319      	str	r1, [r3, #48]	; 0x30
 8001752:	6b1b      	ldr	r3, [r3, #48]	; 0x30
 8001754:	9205      	str	r2, [sp, #20]
 8001756:	f003 0301 	and.w	r3, r3, #1
 800175a:	9302      	str	r3, [sp, #8]
 800175c:	2130      	movs	r1, #48	; 0x30
 800175e:	9b02      	ldr	r3, [sp, #8]
 8001760:	2303      	movs	r3, #3
 8001762:	e9cd 1303 	strd	r1, r3, [sp, #12]
 8001766:	a903      	add	r1, sp, #12
 8001768:	f000 f9de 	bl	8001b28 <HAL_GPIO_Init>
 800176c:	b008      	add	sp, #32
 800176e:	bd10      	pop	{r4, pc}
 8001770:	40007400 	.word	0x40007400
 8001774:	40020000 	.word	0x40020000

08001778 <HAL_TIM_Base_MspInit>:
 8001778:	b507      	push	{r0, r1, r2, lr}
 800177a:	6803      	ldr	r3, [r0, #0]
 800177c:	4a15      	ldr	r2, [pc, #84]	; (80017d4 <HAL_TIM_Base_MspInit+0x5c>)
 800177e:	4293      	cmp	r3, r2
 8001780:	d115      	bne.n	80017ae <HAL_TIM_Base_MspInit+0x36>
 8001782:	4b15      	ldr	r3, [pc, #84]	; (80017d8 <HAL_TIM_Base_MspInit+0x60>)
 8001784:	2200      	movs	r2, #0
 8001786:	9200      	str	r2, [sp, #0]
 8001788:	6c59      	ldr	r1, [r3, #68]	; 0x44
 800178a:	f041 0101 	orr.w	r1, r1, #1
 800178e:	6459      	str	r1, [r3, #68]	; 0x44
 8001790:	6c5b      	ldr	r3, [r3, #68]	; 0x44
 8001792:	f003 0301 	and.w	r3, r3, #1
 8001796:	9300      	str	r3, [sp, #0]
 8001798:	9b00      	ldr	r3, [sp, #0]
 800179a:	4611      	mov	r1, r2
 800179c:	2018      	movs	r0, #24
 800179e:	f000 f90d 	bl	80019bc <HAL_NVIC_SetPriority>
 80017a2:	2018      	movs	r0, #24
 80017a4:	b003      	add	sp, #12
 80017a6:	f85d eb04 	ldr.w	lr, [sp], #4
 80017aa:	f000 b939 	b.w	8001a20 <HAL_NVIC_EnableIRQ>
 80017ae:	4a0b      	ldr	r2, [pc, #44]	; (80017dc <HAL_TIM_Base_MspInit+0x64>)
 80017b0:	4293      	cmp	r3, r2
 80017b2:	d10c      	bne.n	80017ce <HAL_TIM_Base_MspInit+0x56>
 80017b4:	4b08      	ldr	r3, [pc, #32]	; (80017d8 <HAL_TIM_Base_MspInit+0x60>)
 80017b6:	2200      	movs	r2, #0
 80017b8:	9201      	str	r2, [sp, #4]
 80017ba:	6c59      	ldr	r1, [r3, #68]	; 0x44
 80017bc:	f441 3180 	orr.w	r1, r1, #65536	; 0x10000
 80017c0:	6459      	str	r1, [r3, #68]	; 0x44
 80017c2:	6c5b      	ldr	r3, [r3, #68]	; 0x44
 80017c4:	f403 3380 	and.w	r3, r3, #65536	; 0x10000
 80017c8:	9301      	str	r3, [sp, #4]
 80017ca:	9b01      	ldr	r3, [sp, #4]
 80017cc:	e7e5      	b.n	800179a <HAL_TIM_Base_MspInit+0x22>
 80017ce:	b003      	add	sp, #12
 80017d0:	f85d fb04 	ldr.w	pc, [sp], #4
 80017d4:	40010000 	.word	0x40010000
 80017d8:	40023800 	.word	0x40023800
 80017dc:	40014000 	.word	0x40014000

080017e0 <HAL_TIM_MspPostInit>:
 80017e0:	b510      	push	{r4, lr}
 80017e2:	4604      	mov	r4, r0
 80017e4:	b086      	sub	sp, #24
 80017e6:	2214      	movs	r2, #20
 80017e8:	2100      	movs	r1, #0
 80017ea:	a801      	add	r0, sp, #4
 80017ec:	f001 f950 	bl	8002a90 <memset>
 80017f0:	6822      	ldr	r2, [r4, #0]
 80017f2:	4b0e      	ldr	r3, [pc, #56]	; (800182c <HAL_TIM_MspPostInit+0x4c>)
 80017f4:	429a      	cmp	r2, r3
 80017f6:	d117      	bne.n	8001828 <HAL_TIM_MspPostInit+0x48>
 80017f8:	4a0d      	ldr	r2, [pc, #52]	; (8001830 <HAL_TIM_MspPostInit+0x50>)
 80017fa:	480e      	ldr	r0, [pc, #56]	; (8001834 <HAL_TIM_MspPostInit+0x54>)
 80017fc:	2300      	movs	r3, #0
 80017fe:	9300      	str	r3, [sp, #0]
 8001800:	6b11      	ldr	r1, [r2, #48]	; 0x30
 8001802:	f041 0110 	orr.w	r1, r1, #16
 8001806:	6311      	str	r1, [r2, #48]	; 0x30
 8001808:	6b12      	ldr	r2, [r2, #48]	; 0x30
 800180a:	f002 0210 	and.w	r2, r2, #16
 800180e:	9200      	str	r2, [sp, #0]
 8001810:	2120      	movs	r1, #32
 8001812:	9a00      	ldr	r2, [sp, #0]
 8001814:	2202      	movs	r2, #2
 8001816:	e9cd 1201 	strd	r1, r2, [sp, #4]
 800181a:	e9cd 3303 	strd	r3, r3, [sp, #12]
 800181e:	a901      	add	r1, sp, #4
 8001820:	2303      	movs	r3, #3
 8001822:	9305      	str	r3, [sp, #20]
 8001824:	f000 f980 	bl	8001b28 <HAL_GPIO_Init>
 8001828:	b006      	add	sp, #24
 800182a:	bd10      	pop	{r4, pc}
 800182c:	40014000 	.word	0x40014000
 8001830:	40023800 	.word	0x40023800
 8001834:	40021000 	.word	0x40021000

08001838 <NMI_Handler>:
 8001838:	e7fe      	b.n	8001838 <NMI_Handler>

0800183a <HardFault_Handler>:
 800183a:	e7fe      	b.n	800183a <HardFault_Handler>

0800183c <MemManage_Handler>:
 800183c:	e7fe      	b.n	800183c <MemManage_Handler>

0800183e <BusFault_Handler>:
 800183e:	e7fe      	b.n	800183e <BusFault_Handler>

08001840 <UsageFault_Handler>:
 8001840:	e7fe      	b.n	8001840 <UsageFault_Handler>

08001842 <SVC_Handler>:
 8001842:	4770      	bx	lr

08001844 <DebugMon_Handler>:
 8001844:	4770      	bx	lr

08001846 <PendSV_Handler>:
 8001846:	4770      	bx	lr

08001848 <SysTick_Handler>:
 8001848:	f000 b880 	b.w	800194c <HAL_IncTick>

0800184c <TIM1_BRK_TIM9_IRQHandler>:
 800184c:	b508      	push	{r3, lr}
 800184e:	4804      	ldr	r0, [pc, #16]	; (8001860 <TIM1_BRK_TIM9_IRQHandler+0x14>)
 8001850:	f000 fd92 	bl	8002378 <HAL_TIM_IRQHandler>
 8001854:	e8bd 4008 	ldmia.w	sp!, {r3, lr}
 8001858:	4802      	ldr	r0, [pc, #8]	; (8001864 <TIM1_BRK_TIM9_IRQHandler+0x18>)
 800185a:	f000 bd8d 	b.w	8002378 <HAL_TIM_IRQHandler>
 800185e:	bf00      	nop
 8001860:	20000154 	.word	0x20000154
 8001864:	2000019c 	.word	0x2000019c

08001868 <SystemInit>:
 8001868:	4a03      	ldr	r2, [pc, #12]	; (8001878 <SystemInit+0x10>)
 800186a:	f8d2 3088 	ldr.w	r3, [r2, #136]	; 0x88
 800186e:	f443 0370 	orr.w	r3, r3, #15728640	; 0xf00000
 8001872:	f8c2 3088 	str.w	r3, [r2, #136]	; 0x88
 8001876:	4770      	bx	lr
 8001878:	e000ed00 	.word	0xe000ed00

0800187c <Reset_Handler>:
 800187c:	f8df d034 	ldr.w	sp, [pc, #52]	; 80018b4 <LoopFillZerobss+0x12>
 8001880:	480d      	ldr	r0, [pc, #52]	; (80018b8 <LoopFillZerobss+0x16>)
 8001882:	490e      	ldr	r1, [pc, #56]	; (80018bc <LoopFillZerobss+0x1a>)
 8001884:	4a0e      	ldr	r2, [pc, #56]	; (80018c0 <LoopFillZerobss+0x1e>)
 8001886:	2300      	movs	r3, #0
 8001888:	e002      	b.n	8001890 <LoopCopyDataInit>

0800188a <CopyDataInit>:
 800188a:	58d4      	ldr	r4, [r2, r3]
 800188c:	50c4      	str	r4, [r0, r3]
 800188e:	3304      	adds	r3, #4

08001890 <LoopCopyDataInit>:
 8001890:	18c4      	adds	r4, r0, r3
 8001892:	428c      	cmp	r4, r1
 8001894:	d3f9      	bcc.n	800188a <CopyDataInit>
 8001896:	4a0b      	ldr	r2, [pc, #44]	; (80018c4 <LoopFillZerobss+0x22>)
 8001898:	4c0b      	ldr	r4, [pc, #44]	; (80018c8 <LoopFillZerobss+0x26>)
 800189a:	2300      	movs	r3, #0
 800189c:	e001      	b.n	80018a2 <LoopFillZerobss>

0800189e <FillZerobss>:
 800189e:	6013      	str	r3, [r2, #0]
 80018a0:	3204      	adds	r2, #4

080018a2 <LoopFillZerobss>:
 80018a2:	42a2      	cmp	r2, r4
 80018a4:	d3fb      	bcc.n	800189e <FillZerobss>
 80018a6:	f7ff ffdf 	bl	8001868 <SystemInit>
 80018aa:	f001 f8bf 	bl	8002a2c <__libc_init_array>
 80018ae:	f7ff faf7 	bl	8000ea0 <main>
 80018b2:	4770      	bx	lr
 80018b4:	20050000 	.word	0x20050000
 80018b8:	20000000 	.word	0x20000000
 80018bc:	200000ac 	.word	0x200000ac
 80018c0:	08005834 	.word	0x08005834
 80018c4:	200000b0 	.word	0x200000b0
 80018c8:	20000294 	.word	0x20000294

080018cc <ADC_IRQHandler>:
 80018cc:	e7fe      	b.n	80018cc <ADC_IRQHandler>
	...

080018d0 <HAL_InitTick>:
 80018d0:	b538      	push	{r3, r4, r5, lr}
 80018d2:	4a0e      	ldr	r2, [pc, #56]	; (800190c <HAL_InitTick+0x3c>)
 80018d4:	4b0e      	ldr	r3, [pc, #56]	; (8001910 <HAL_InitTick+0x40>)
 80018d6:	4605      	mov	r5, r0
 80018d8:	7818      	ldrb	r0, [r3, #0]
 80018da:	f44f 737a 	mov.w	r3, #1000	; 0x3e8
 80018de:	fbb3 f3f0 	udiv	r3, r3, r0
 80018e2:	6810      	ldr	r0, [r2, #0]
 80018e4:	fbb0 f0f3 	udiv	r0, r0, r3
 80018e8:	f000 f8a8 	bl	8001a3c <HAL_SYSTICK_Config>
 80018ec:	4604      	mov	r4, r0
 80018ee:	b958      	cbnz	r0, 8001908 <HAL_InitTick+0x38>
 80018f0:	2d0f      	cmp	r5, #15
 80018f2:	d809      	bhi.n	8001908 <HAL_InitTick+0x38>
 80018f4:	4602      	mov	r2, r0
 80018f6:	4629      	mov	r1, r5
 80018f8:	f04f 30ff 	mov.w	r0, #4294967295	; 0xffffffff
 80018fc:	f000 f85e 	bl	80019bc <HAL_NVIC_SetPriority>
 8001900:	4b04      	ldr	r3, [pc, #16]	; (8001914 <HAL_InitTick+0x44>)
 8001902:	4620      	mov	r0, r4
 8001904:	601d      	str	r5, [r3, #0]
 8001906:	bd38      	pop	{r3, r4, r5, pc}
 8001908:	2001      	movs	r0, #1
 800190a:	e7fc      	b.n	8001906 <HAL_InitTick+0x36>
 800190c:	2000003c 	.word	0x2000003c
 8001910:	20000040 	.word	0x20000040
 8001914:	20000044 	.word	0x20000044

08001918 <HAL_Init>:
 8001918:	b508      	push	{r3, lr}
 800191a:	4b0b      	ldr	r3, [pc, #44]	; (8001948 <HAL_Init+0x30>)
 800191c:	681a      	ldr	r2, [r3, #0]
 800191e:	f442 7200 	orr.w	r2, r2, #512	; 0x200
 8001922:	601a      	str	r2, [r3, #0]
 8001924:	681a      	ldr	r2, [r3, #0]
 8001926:	f442 6280 	orr.w	r2, r2, #1024	; 0x400
 800192a:	601a      	str	r2, [r3, #0]
 800192c:	681a      	ldr	r2, [r3, #0]
 800192e:	f442 7280 	orr.w	r2, r2, #256	; 0x100
 8001932:	601a      	str	r2, [r3, #0]
 8001934:	2003      	movs	r0, #3
 8001936:	f000 f82f 	bl	8001998 <HAL_NVIC_SetPriorityGrouping>
 800193a:	2000      	movs	r0, #0
 800193c:	f7ff ffc8 	bl	80018d0 <HAL_InitTick>
 8001940:	f7ff fecc 	bl	80016dc <HAL_MspInit>
 8001944:	2000      	movs	r0, #0
 8001946:	bd08      	pop	{r3, pc}
 8001948:	40023c00 	.word	0x40023c00

0800194c <HAL_IncTick>:
 800194c:	4a03      	ldr	r2, [pc, #12]	; (800195c <HAL_IncTick+0x10>)
 800194e:	4b04      	ldr	r3, [pc, #16]	; (8001960 <HAL_IncTick+0x14>)
 8001950:	6811      	ldr	r1, [r2, #0]
 8001952:	781b      	ldrb	r3, [r3, #0]
 8001954:	440b      	add	r3, r1
 8001956:	6013      	str	r3, [r2, #0]
 8001958:	4770      	bx	lr
 800195a:	bf00      	nop
 800195c:	20000290 	.word	0x20000290
 8001960:	20000040 	.word	0x20000040

08001964 <HAL_GetTick>:
 8001964:	4b01      	ldr	r3, [pc, #4]	; (800196c <HAL_GetTick+0x8>)
 8001966:	6818      	ldr	r0, [r3, #0]
 8001968:	4770      	bx	lr
 800196a:	bf00      	nop
 800196c:	20000290 	.word	0x20000290

08001970 <HAL_Delay>:
 8001970:	b538      	push	{r3, r4, r5, lr}
 8001972:	4604      	mov	r4, r0
 8001974:	f7ff fff6 	bl	8001964 <HAL_GetTick>
 8001978:	1c63      	adds	r3, r4, #1
 800197a:	bf1c      	itt	ne
 800197c:	4b05      	ldrne	r3, [pc, #20]	; (8001994 <HAL_Delay+0x24>)
 800197e:	781b      	ldrbne	r3, [r3, #0]
 8001980:	4605      	mov	r5, r0
 8001982:	bf18      	it	ne
 8001984:	18e4      	addne	r4, r4, r3
 8001986:	f7ff ffed 	bl	8001964 <HAL_GetTick>
 800198a:	1b43      	subs	r3, r0, r5
 800198c:	42a3      	cmp	r3, r4
 800198e:	d3fa      	bcc.n	8001986 <HAL_Delay+0x16>
 8001990:	bd38      	pop	{r3, r4, r5, pc}
 8001992:	bf00      	nop
 8001994:	20000040 	.word	0x20000040

08001998 <HAL_NVIC_SetPriorityGrouping>:
 8001998:	4907      	ldr	r1, [pc, #28]	; (80019b8 <HAL_NVIC_SetPriorityGrouping+0x20>)
 800199a:	68ca      	ldr	r2, [r1, #12]
 800199c:	f422 62e0 	bic.w	r2, r2, #1792	; 0x700
 80019a0:	0203      	lsls	r3, r0, #8
 80019a2:	0412      	lsls	r2, r2, #16
 80019a4:	f403 63e0 	and.w	r3, r3, #1792	; 0x700
 80019a8:	0c12      	lsrs	r2, r2, #16
 80019aa:	4313      	orrs	r3, r2
 80019ac:	f043 63bf 	orr.w	r3, r3, #100139008	; 0x5f80000
 80019b0:	f443 3300 	orr.w	r3, r3, #131072	; 0x20000
 80019b4:	60cb      	str	r3, [r1, #12]
 80019b6:	4770      	bx	lr
 80019b8:	e000ed00 	.word	0xe000ed00

080019bc <HAL_NVIC_SetPriority>:
 80019bc:	4b16      	ldr	r3, [pc, #88]	; (8001a18 <HAL_NVIC_SetPriority+0x5c>)
 80019be:	b530      	push	{r4, r5, lr}
 80019c0:	68dc      	ldr	r4, [r3, #12]
 80019c2:	f3c4 2402 	ubfx	r4, r4, #8, #3
 80019c6:	f1c4 0507 	rsb	r5, r4, #7
 80019ca:	1d23      	adds	r3, r4, #4
 80019cc:	2d04      	cmp	r5, #4
 80019ce:	bf28      	it	cs
 80019d0:	2504      	movcs	r5, #4
 80019d2:	2b06      	cmp	r3, #6
 80019d4:	f04f 33ff 	mov.w	r3, #4294967295	; 0xffffffff
 80019d8:	bf8c      	ite	hi
 80019da:	3c03      	subhi	r4, #3
 80019dc:	2400      	movls	r4, #0
 80019de:	fa03 f505 	lsl.w	r5, r3, r5
 80019e2:	ea21 0105 	bic.w	r1, r1, r5
 80019e6:	40a3      	lsls	r3, r4
 80019e8:	ea22 0203 	bic.w	r2, r2, r3
 80019ec:	40a1      	lsls	r1, r4
 80019ee:	2800      	cmp	r0, #0
 80019f0:	ea41 0302 	orr.w	r3, r1, r2
 80019f4:	bfac      	ite	ge
 80019f6:	f100 4060 	addge.w	r0, r0, #3758096384	; 0xe0000000
 80019fa:	4a08      	ldrlt	r2, [pc, #32]	; (8001a1c <HAL_NVIC_SetPriority+0x60>)
 80019fc:	ea4f 1303 	mov.w	r3, r3, lsl #4
 8001a00:	bfb8      	it	lt
 8001a02:	f000 000f 	andlt.w	r0, r0, #15
 8001a06:	b2db      	uxtb	r3, r3
 8001a08:	bfaa      	itet	ge
 8001a0a:	f500 4061 	addge.w	r0, r0, #57600	; 0xe100
 8001a0e:	5413      	strblt	r3, [r2, r0]
 8001a10:	f880 3300 	strbge.w	r3, [r0, #768]	; 0x300
 8001a14:	bd30      	pop	{r4, r5, pc}
 8001a16:	bf00      	nop
 8001a18:	e000ed00 	.word	0xe000ed00
 8001a1c:	e000ed14 	.word	0xe000ed14

08001a20 <HAL_NVIC_EnableIRQ>:
 8001a20:	2800      	cmp	r0, #0
 8001a22:	db08      	blt.n	8001a36 <HAL_NVIC_EnableIRQ+0x16>
 8001a24:	0942      	lsrs	r2, r0, #5
 8001a26:	2301      	movs	r3, #1
 8001a28:	f000 001f 	and.w	r0, r0, #31
 8001a2c:	fa03 f000 	lsl.w	r0, r3, r0
 8001a30:	4b01      	ldr	r3, [pc, #4]	; (8001a38 <HAL_NVIC_EnableIRQ+0x18>)
 8001a32:	f843 0022 	str.w	r0, [r3, r2, lsl #2]
 8001a36:	4770      	bx	lr
 8001a38:	e000e100 	.word	0xe000e100

08001a3c <HAL_SYSTICK_Config>:
 8001a3c:	3801      	subs	r0, #1
 8001a3e:	f1b0 7f80 	cmp.w	r0, #16777216	; 0x1000000
 8001a42:	d20a      	bcs.n	8001a5a <HAL_SYSTICK_Config+0x1e>
 8001a44:	4b06      	ldr	r3, [pc, #24]	; (8001a60 <HAL_SYSTICK_Config+0x24>)
 8001a46:	4a07      	ldr	r2, [pc, #28]	; (8001a64 <HAL_SYSTICK_Config+0x28>)
 8001a48:	6058      	str	r0, [r3, #4]
 8001a4a:	21f0      	movs	r1, #240	; 0xf0
 8001a4c:	f882 1023 	strb.w	r1, [r2, #35]	; 0x23
 8001a50:	2000      	movs	r0, #0
 8001a52:	2207      	movs	r2, #7
 8001a54:	6098      	str	r0, [r3, #8]
 8001a56:	601a      	str	r2, [r3, #0]
 8001a58:	4770      	bx	lr
 8001a5a:	2001      	movs	r0, #1
 8001a5c:	4770      	bx	lr
 8001a5e:	bf00      	nop
 8001a60:	e000e010 	.word	0xe000e010
 8001a64:	e000ed00 	.word	0xe000ed00

08001a68 <HAL_DAC_Init>:
 8001a68:	b510      	push	{r4, lr}
 8001a6a:	4604      	mov	r4, r0
 8001a6c:	b168      	cbz	r0, 8001a8a <HAL_DAC_Init+0x22>
 8001a6e:	7903      	ldrb	r3, [r0, #4]
 8001a70:	f003 02ff 	and.w	r2, r3, #255	; 0xff
 8001a74:	b913      	cbnz	r3, 8001a7c <HAL_DAC_Init+0x14>
 8001a76:	7142      	strb	r2, [r0, #5]
 8001a78:	f7ff fe4c 	bl	8001714 <HAL_DAC_MspInit>
 8001a7c:	2302      	movs	r3, #2
 8001a7e:	7123      	strb	r3, [r4, #4]
 8001a80:	2000      	movs	r0, #0
 8001a82:	2301      	movs	r3, #1
 8001a84:	6120      	str	r0, [r4, #16]
 8001a86:	7123      	strb	r3, [r4, #4]
 8001a88:	bd10      	pop	{r4, pc}
 8001a8a:	2001      	movs	r0, #1
 8001a8c:	e7fc      	b.n	8001a88 <HAL_DAC_Init+0x20>

08001a8e <HAL_DAC_Start>:
 8001a8e:	b530      	push	{r4, r5, lr}
 8001a90:	7943      	ldrb	r3, [r0, #5]
 8001a92:	2b01      	cmp	r3, #1
 8001a94:	f04f 0302 	mov.w	r3, #2
 8001a98:	d016      	beq.n	8001ac8 <HAL_DAC_Start+0x3a>
 8001a9a:	7103      	strb	r3, [r0, #4]
 8001a9c:	6803      	ldr	r3, [r0, #0]
 8001a9e:	f001 0410 	and.w	r4, r1, #16
 8001aa2:	681d      	ldr	r5, [r3, #0]
 8001aa4:	2201      	movs	r2, #1
 8001aa6:	40a2      	lsls	r2, r4
 8001aa8:	432a      	orrs	r2, r5
 8001aaa:	601a      	str	r2, [r3, #0]
 8001aac:	b971      	cbnz	r1, 8001acc <HAL_DAC_Start+0x3e>
 8001aae:	681a      	ldr	r2, [r3, #0]
 8001ab0:	f002 023c 	and.w	r2, r2, #60	; 0x3c
 8001ab4:	2a3c      	cmp	r2, #60	; 0x3c
 8001ab6:	d103      	bne.n	8001ac0 <HAL_DAC_Start+0x32>
 8001ab8:	685a      	ldr	r2, [r3, #4]
 8001aba:	f042 0201 	orr.w	r2, r2, #1
 8001abe:	605a      	str	r2, [r3, #4]
 8001ac0:	2301      	movs	r3, #1
 8001ac2:	7103      	strb	r3, [r0, #4]
 8001ac4:	2300      	movs	r3, #0
 8001ac6:	7143      	strb	r3, [r0, #5]
 8001ac8:	4618      	mov	r0, r3
 8001aca:	bd30      	pop	{r4, r5, pc}
 8001acc:	6819      	ldr	r1, [r3, #0]
 8001ace:	223c      	movs	r2, #60	; 0x3c
 8001ad0:	f401 1170 	and.w	r1, r1, #3932160	; 0x3c0000
 8001ad4:	40a2      	lsls	r2, r4
 8001ad6:	4291      	cmp	r1, r2
 8001ad8:	d1f2      	bne.n	8001ac0 <HAL_DAC_Start+0x32>
 8001ada:	685a      	ldr	r2, [r3, #4]
 8001adc:	f042 0202 	orr.w	r2, r2, #2
 8001ae0:	e7ed      	b.n	8001abe <HAL_DAC_Start+0x30>

08001ae2 <HAL_DAC_ConfigChannel>:
 8001ae2:	b530      	push	{r4, r5, lr}
 8001ae4:	7943      	ldrb	r3, [r0, #5]
 8001ae6:	2b01      	cmp	r3, #1
 8001ae8:	f04f 0302 	mov.w	r3, #2
 8001aec:	d01a      	beq.n	8001b24 <HAL_DAC_ConfigChannel+0x42>
 8001aee:	6804      	ldr	r4, [r0, #0]
 8001af0:	7103      	strb	r3, [r0, #4]
 8001af2:	6823      	ldr	r3, [r4, #0]
 8001af4:	f002 0210 	and.w	r2, r2, #16
 8001af8:	f640 75fe 	movw	r5, #4094	; 0xffe
 8001afc:	4095      	lsls	r5, r2
 8001afe:	ea23 0505 	bic.w	r5, r3, r5
 8001b02:	e9d1 3100 	ldrd	r3, r1, [r1]
 8001b06:	430b      	orrs	r3, r1
 8001b08:	4093      	lsls	r3, r2
 8001b0a:	432b      	orrs	r3, r5
 8001b0c:	6023      	str	r3, [r4, #0]
 8001b0e:	6823      	ldr	r3, [r4, #0]
 8001b10:	21c0      	movs	r1, #192	; 0xc0
 8001b12:	fa01 f202 	lsl.w	r2, r1, r2
 8001b16:	ea23 0202 	bic.w	r2, r3, r2
 8001b1a:	2301      	movs	r3, #1
 8001b1c:	6022      	str	r2, [r4, #0]
 8001b1e:	7103      	strb	r3, [r0, #4]
 8001b20:	2300      	movs	r3, #0
 8001b22:	7143      	strb	r3, [r0, #5]
 8001b24:	4618      	mov	r0, r3
 8001b26:	bd30      	pop	{r4, r5, pc}

08001b28 <HAL_GPIO_Init>:
 8001b28:	e92d 4ff7 	stmdb	sp!, {r0, r1, r2, r4, r5, r6, r7, r8, r9, sl, fp, lr}
 8001b2c:	f8df 919c 	ldr.w	r9, [pc, #412]	; 8001ccc <HAL_GPIO_Init+0x1a4>
 8001b30:	4a64      	ldr	r2, [pc, #400]	; (8001cc4 <HAL_GPIO_Init+0x19c>)
 8001b32:	2300      	movs	r3, #0
 8001b34:	680d      	ldr	r5, [r1, #0]
 8001b36:	2401      	movs	r4, #1
 8001b38:	409c      	lsls	r4, r3
 8001b3a:	ea04 0c05 	and.w	ip, r4, r5
 8001b3e:	43ac      	bics	r4, r5
 8001b40:	f040 80ad 	bne.w	8001c9e <HAL_GPIO_Init+0x176>
 8001b44:	684d      	ldr	r5, [r1, #4]
 8001b46:	f005 0403 	and.w	r4, r5, #3
 8001b4a:	ea4f 0843 	mov.w	r8, r3, lsl #1
 8001b4e:	2603      	movs	r6, #3
 8001b50:	1e67      	subs	r7, r4, #1
 8001b52:	fa06 f608 	lsl.w	r6, r6, r8
 8001b56:	2f01      	cmp	r7, #1
 8001b58:	ea6f 0606 	mvn.w	r6, r6
 8001b5c:	d834      	bhi.n	8001bc8 <HAL_GPIO_Init+0xa0>
 8001b5e:	6887      	ldr	r7, [r0, #8]
 8001b60:	ea07 0e06 	and.w	lr, r7, r6
 8001b64:	68cf      	ldr	r7, [r1, #12]
 8001b66:	fa07 f708 	lsl.w	r7, r7, r8
 8001b6a:	ea47 070e 	orr.w	r7, r7, lr
 8001b6e:	6087      	str	r7, [r0, #8]
 8001b70:	6847      	ldr	r7, [r0, #4]
 8001b72:	ea27 0e0c 	bic.w	lr, r7, ip
 8001b76:	f3c5 1700 	ubfx	r7, r5, #4, #1
 8001b7a:	409f      	lsls	r7, r3
 8001b7c:	ea47 070e 	orr.w	r7, r7, lr
 8001b80:	6047      	str	r7, [r0, #4]
 8001b82:	68c7      	ldr	r7, [r0, #12]
 8001b84:	ea07 0e06 	and.w	lr, r7, r6
 8001b88:	688f      	ldr	r7, [r1, #8]
 8001b8a:	fa07 f708 	lsl.w	r7, r7, r8
 8001b8e:	ea47 070e 	orr.w	r7, r7, lr
 8001b92:	2c02      	cmp	r4, #2
 8001b94:	60c7      	str	r7, [r0, #12]
 8001b96:	d119      	bne.n	8001bcc <HAL_GPIO_Init+0xa4>
 8001b98:	ea4f 0ad3 	mov.w	sl, r3, lsr #3
 8001b9c:	eb00 0a8a 	add.w	sl, r0, sl, lsl #2
 8001ba0:	f003 0b07 	and.w	fp, r3, #7
 8001ba4:	f8da 7020 	ldr.w	r7, [sl, #32]
 8001ba8:	ea4f 0b8b 	mov.w	fp, fp, lsl #2
 8001bac:	f04f 0e0f 	mov.w	lr, #15
 8001bb0:	fa0e fe0b 	lsl.w	lr, lr, fp
 8001bb4:	ea27 0e0e 	bic.w	lr, r7, lr
 8001bb8:	690f      	ldr	r7, [r1, #16]
 8001bba:	fa07 f70b 	lsl.w	r7, r7, fp
 8001bbe:	ea47 070e 	orr.w	r7, r7, lr
 8001bc2:	f8ca 7020 	str.w	r7, [sl, #32]
 8001bc6:	e001      	b.n	8001bcc <HAL_GPIO_Init+0xa4>
 8001bc8:	2c03      	cmp	r4, #3
 8001bca:	d1da      	bne.n	8001b82 <HAL_GPIO_Init+0x5a>
 8001bcc:	6807      	ldr	r7, [r0, #0]
 8001bce:	fa04 f408 	lsl.w	r4, r4, r8
 8001bd2:	403e      	ands	r6, r7
 8001bd4:	4326      	orrs	r6, r4
 8001bd6:	f415 3f40 	tst.w	r5, #196608	; 0x30000
 8001bda:	6006      	str	r6, [r0, #0]
 8001bdc:	d05f      	beq.n	8001c9e <HAL_GPIO_Init+0x176>
 8001bde:	f04f 0a00 	mov.w	sl, #0
 8001be2:	f8cd a004 	str.w	sl, [sp, #4]
 8001be6:	f8d9 6044 	ldr.w	r6, [r9, #68]	; 0x44
 8001bea:	4c37      	ldr	r4, [pc, #220]	; (8001cc8 <HAL_GPIO_Init+0x1a0>)
 8001bec:	f446 4680 	orr.w	r6, r6, #16384	; 0x4000
 8001bf0:	f8c9 6044 	str.w	r6, [r9, #68]	; 0x44
 8001bf4:	f8d9 6044 	ldr.w	r6, [r9, #68]	; 0x44
 8001bf8:	f406 4680 	and.w	r6, r6, #16384	; 0x4000
 8001bfc:	9601      	str	r6, [sp, #4]
 8001bfe:	9e01      	ldr	r6, [sp, #4]
 8001c00:	f023 0603 	bic.w	r6, r3, #3
 8001c04:	f106 4680 	add.w	r6, r6, #1073741824	; 0x40000000
 8001c08:	f506 369c 	add.w	r6, r6, #79872	; 0x13800
 8001c0c:	f003 0e03 	and.w	lr, r3, #3
 8001c10:	f8d6 8008 	ldr.w	r8, [r6, #8]
 8001c14:	ea4f 0e8e 	mov.w	lr, lr, lsl #2
 8001c18:	270f      	movs	r7, #15
 8001c1a:	fa07 f70e 	lsl.w	r7, r7, lr
 8001c1e:	42a0      	cmp	r0, r4
 8001c20:	ea28 0707 	bic.w	r7, r8, r7
 8001c24:	d042      	beq.n	8001cac <HAL_GPIO_Init+0x184>
 8001c26:	f504 6480 	add.w	r4, r4, #1024	; 0x400
 8001c2a:	42a0      	cmp	r0, r4
 8001c2c:	d040      	beq.n	8001cb0 <HAL_GPIO_Init+0x188>
 8001c2e:	f504 6480 	add.w	r4, r4, #1024	; 0x400
 8001c32:	42a0      	cmp	r0, r4
 8001c34:	d03e      	beq.n	8001cb4 <HAL_GPIO_Init+0x18c>
 8001c36:	f504 6480 	add.w	r4, r4, #1024	; 0x400
 8001c3a:	42a0      	cmp	r0, r4
 8001c3c:	d03c      	beq.n	8001cb8 <HAL_GPIO_Init+0x190>
 8001c3e:	f504 6480 	add.w	r4, r4, #1024	; 0x400
 8001c42:	42a0      	cmp	r0, r4
 8001c44:	d03a      	beq.n	8001cbc <HAL_GPIO_Init+0x194>
 8001c46:	f504 6480 	add.w	r4, r4, #1024	; 0x400
 8001c4a:	42a0      	cmp	r0, r4
 8001c4c:	d038      	beq.n	8001cc0 <HAL_GPIO_Init+0x198>
 8001c4e:	f504 6480 	add.w	r4, r4, #1024	; 0x400
 8001c52:	42a0      	cmp	r0, r4
 8001c54:	bf0c      	ite	eq
 8001c56:	2406      	moveq	r4, #6
 8001c58:	2407      	movne	r4, #7
 8001c5a:	fa04 f40e 	lsl.w	r4, r4, lr
 8001c5e:	433c      	orrs	r4, r7
 8001c60:	60b4      	str	r4, [r6, #8]
 8001c62:	6894      	ldr	r4, [r2, #8]
 8001c64:	ea6f 060c 	mvn.w	r6, ip
 8001c68:	02ef      	lsls	r7, r5, #11
 8001c6a:	bf54      	ite	pl
 8001c6c:	4034      	andpl	r4, r6
 8001c6e:	ea4c 0404 	orrmi.w	r4, ip, r4
 8001c72:	6094      	str	r4, [r2, #8]
 8001c74:	68d4      	ldr	r4, [r2, #12]
 8001c76:	02af      	lsls	r7, r5, #10
 8001c78:	bf54      	ite	pl
 8001c7a:	4034      	andpl	r4, r6
 8001c7c:	ea4c 0404 	orrmi.w	r4, ip, r4
 8001c80:	60d4      	str	r4, [r2, #12]
 8001c82:	6854      	ldr	r4, [r2, #4]
 8001c84:	03af      	lsls	r7, r5, #14
 8001c86:	bf54      	ite	pl
 8001c88:	4034      	andpl	r4, r6
 8001c8a:	ea4c 0404 	orrmi.w	r4, ip, r4
 8001c8e:	6054      	str	r4, [r2, #4]
 8001c90:	6814      	ldr	r4, [r2, #0]
 8001c92:	03ed      	lsls	r5, r5, #15
 8001c94:	bf54      	ite	pl
 8001c96:	4034      	andpl	r4, r6
 8001c98:	ea4c 0404 	orrmi.w	r4, ip, r4
 8001c9c:	6014      	str	r4, [r2, #0]
 8001c9e:	3301      	adds	r3, #1
 8001ca0:	2b10      	cmp	r3, #16
 8001ca2:	f47f af47 	bne.w	8001b34 <HAL_GPIO_Init+0xc>
 8001ca6:	b003      	add	sp, #12
 8001ca8:	e8bd 8ff0 	ldmia.w	sp!, {r4, r5, r6, r7, r8, r9, sl, fp, pc}
 8001cac:	4654      	mov	r4, sl
 8001cae:	e7d4      	b.n	8001c5a <HAL_GPIO_Init+0x132>
 8001cb0:	2401      	movs	r4, #1
 8001cb2:	e7d2      	b.n	8001c5a <HAL_GPIO_Init+0x132>
 8001cb4:	2402      	movs	r4, #2
 8001cb6:	e7d0      	b.n	8001c5a <HAL_GPIO_Init+0x132>
 8001cb8:	2403      	movs	r4, #3
 8001cba:	e7ce      	b.n	8001c5a <HAL_GPIO_Init+0x132>
 8001cbc:	2404      	movs	r4, #4
 8001cbe:	e7cc      	b.n	8001c5a <HAL_GPIO_Init+0x132>
 8001cc0:	2405      	movs	r4, #5
 8001cc2:	e7ca      	b.n	8001c5a <HAL_GPIO_Init+0x132>
 8001cc4:	40013c00 	.word	0x40013c00
 8001cc8:	40020000 	.word	0x40020000
 8001ccc:	40023800 	.word	0x40023800

08001cd0 <HAL_GPIO_WritePin>:
 8001cd0:	b10a      	cbz	r2, 8001cd6 <HAL_GPIO_WritePin+0x6>
 8001cd2:	6181      	str	r1, [r0, #24]
 8001cd4:	4770      	bx	lr
 8001cd6:	0409      	lsls	r1, r1, #16
 8001cd8:	e7fb      	b.n	8001cd2 <HAL_GPIO_WritePin+0x2>
	...

08001cdc <HAL_RCC_GetSysClockFreq>:
 8001cdc:	4913      	ldr	r1, [pc, #76]	; (8001d2c <HAL_RCC_GetSysClockFreq+0x50>)
 8001cde:	b508      	push	{r3, lr}
 8001ce0:	688b      	ldr	r3, [r1, #8]
 8001ce2:	f003 030c 	and.w	r3, r3, #12
 8001ce6:	2b04      	cmp	r3, #4
 8001ce8:	d01c      	beq.n	8001d24 <HAL_RCC_GetSysClockFreq+0x48>
 8001cea:	2b08      	cmp	r3, #8
 8001cec:	d11c      	bne.n	8001d28 <HAL_RCC_GetSysClockFreq+0x4c>
 8001cee:	684a      	ldr	r2, [r1, #4]
 8001cf0:	684b      	ldr	r3, [r1, #4]
 8001cf2:	6849      	ldr	r1, [r1, #4]
 8001cf4:	f413 0380 	ands.w	r3, r3, #4194304	; 0x400000
 8001cf8:	bf14      	ite	ne
 8001cfa:	480d      	ldrne	r0, [pc, #52]	; (8001d30 <HAL_RCC_GetSysClockFreq+0x54>)
 8001cfc:	480d      	ldreq	r0, [pc, #52]	; (8001d34 <HAL_RCC_GetSysClockFreq+0x58>)
 8001cfe:	f3c1 1188 	ubfx	r1, r1, #6, #9
 8001d02:	bf18      	it	ne
 8001d04:	2300      	movne	r3, #0
 8001d06:	f002 023f 	and.w	r2, r2, #63	; 0x3f
 8001d0a:	fba1 0100 	umull	r0, r1, r1, r0
 8001d0e:	f7fe fef9 	bl	8000b04 <__aeabi_uldivmod>
 8001d12:	4b06      	ldr	r3, [pc, #24]	; (8001d2c <HAL_RCC_GetSysClockFreq+0x50>)
 8001d14:	685b      	ldr	r3, [r3, #4]
 8001d16:	f3c3 4301 	ubfx	r3, r3, #16, #2
 8001d1a:	3301      	adds	r3, #1
 8001d1c:	005b      	lsls	r3, r3, #1
 8001d1e:	fbb0 f0f3 	udiv	r0, r0, r3
 8001d22:	bd08      	pop	{r3, pc}
 8001d24:	4802      	ldr	r0, [pc, #8]	; (8001d30 <HAL_RCC_GetSysClockFreq+0x54>)
 8001d26:	e7fc      	b.n	8001d22 <HAL_RCC_GetSysClockFreq+0x46>
 8001d28:	4802      	ldr	r0, [pc, #8]	; (8001d34 <HAL_RCC_GetSysClockFreq+0x58>)
 8001d2a:	e7fa      	b.n	8001d22 <HAL_RCC_GetSysClockFreq+0x46>
 8001d2c:	40023800 	.word	0x40023800
 8001d30:	007a1200 	.word	0x007a1200
 8001d34:	00f42400 	.word	0x00f42400

08001d38 <HAL_RCC_ClockConfig>:
 8001d38:	e92d 41f0 	stmdb	sp!, {r4, r5, r6, r7, r8, lr}
 8001d3c:	460d      	mov	r5, r1
 8001d3e:	4604      	mov	r4, r0
 8001d40:	b910      	cbnz	r0, 8001d48 <HAL_RCC_ClockConfig+0x10>
 8001d42:	2001      	movs	r0, #1
 8001d44:	e8bd 81f0 	ldmia.w	sp!, {r4, r5, r6, r7, r8, pc}
 8001d48:	4b44      	ldr	r3, [pc, #272]	; (8001e5c <HAL_RCC_ClockConfig+0x124>)
 8001d4a:	681a      	ldr	r2, [r3, #0]
 8001d4c:	f002 0207 	and.w	r2, r2, #7
 8001d50:	428a      	cmp	r2, r1
 8001d52:	d328      	bcc.n	8001da6 <HAL_RCC_ClockConfig+0x6e>
 8001d54:	6822      	ldr	r2, [r4, #0]
 8001d56:	0797      	lsls	r7, r2, #30
 8001d58:	d42d      	bmi.n	8001db6 <HAL_RCC_ClockConfig+0x7e>
 8001d5a:	07d0      	lsls	r0, r2, #31
 8001d5c:	d441      	bmi.n	8001de2 <HAL_RCC_ClockConfig+0xaa>
 8001d5e:	4b3f      	ldr	r3, [pc, #252]	; (8001e5c <HAL_RCC_ClockConfig+0x124>)
 8001d60:	681a      	ldr	r2, [r3, #0]
 8001d62:	f002 0207 	and.w	r2, r2, #7
 8001d66:	42aa      	cmp	r2, r5
 8001d68:	d866      	bhi.n	8001e38 <HAL_RCC_ClockConfig+0x100>
 8001d6a:	6822      	ldr	r2, [r4, #0]
 8001d6c:	0751      	lsls	r1, r2, #29
 8001d6e:	d46c      	bmi.n	8001e4a <HAL_RCC_ClockConfig+0x112>
 8001d70:	0713      	lsls	r3, r2, #28
 8001d72:	d507      	bpl.n	8001d84 <HAL_RCC_ClockConfig+0x4c>
 8001d74:	4a3a      	ldr	r2, [pc, #232]	; (8001e60 <HAL_RCC_ClockConfig+0x128>)
 8001d76:	6921      	ldr	r1, [r4, #16]
 8001d78:	6893      	ldr	r3, [r2, #8]
 8001d7a:	f423 4360 	bic.w	r3, r3, #57344	; 0xe000
 8001d7e:	ea43 03c1 	orr.w	r3, r3, r1, lsl #3
 8001d82:	6093      	str	r3, [r2, #8]
 8001d84:	f7ff ffaa 	bl	8001cdc <HAL_RCC_GetSysClockFreq>
 8001d88:	4b35      	ldr	r3, [pc, #212]	; (8001e60 <HAL_RCC_ClockConfig+0x128>)
 8001d8a:	4a36      	ldr	r2, [pc, #216]	; (8001e64 <HAL_RCC_ClockConfig+0x12c>)
 8001d8c:	689b      	ldr	r3, [r3, #8]
 8001d8e:	f3c3 1303 	ubfx	r3, r3, #4, #4
 8001d92:	5cd3      	ldrb	r3, [r2, r3]
 8001d94:	40d8      	lsrs	r0, r3
 8001d96:	4b34      	ldr	r3, [pc, #208]	; (8001e68 <HAL_RCC_ClockConfig+0x130>)
 8001d98:	6018      	str	r0, [r3, #0]
 8001d9a:	4b34      	ldr	r3, [pc, #208]	; (8001e6c <HAL_RCC_ClockConfig+0x134>)
 8001d9c:	6818      	ldr	r0, [r3, #0]
 8001d9e:	f7ff fd97 	bl	80018d0 <HAL_InitTick>
 8001da2:	2000      	movs	r0, #0
 8001da4:	e7ce      	b.n	8001d44 <HAL_RCC_ClockConfig+0xc>
 8001da6:	b2ca      	uxtb	r2, r1
 8001da8:	701a      	strb	r2, [r3, #0]
 8001daa:	681b      	ldr	r3, [r3, #0]
 8001dac:	f003 0307 	and.w	r3, r3, #7
 8001db0:	428b      	cmp	r3, r1
 8001db2:	d1c6      	bne.n	8001d42 <HAL_RCC_ClockConfig+0xa>
 8001db4:	e7ce      	b.n	8001d54 <HAL_RCC_ClockConfig+0x1c>
 8001db6:	4b2a      	ldr	r3, [pc, #168]	; (8001e60 <HAL_RCC_ClockConfig+0x128>)
 8001db8:	f012 0f04 	tst.w	r2, #4
 8001dbc:	bf1e      	ittt	ne
 8001dbe:	6899      	ldrne	r1, [r3, #8]
 8001dc0:	f441 51e0 	orrne.w	r1, r1, #7168	; 0x1c00
 8001dc4:	6099      	strne	r1, [r3, #8]
 8001dc6:	0716      	lsls	r6, r2, #28
 8001dc8:	bf42      	ittt	mi
 8001dca:	6899      	ldrmi	r1, [r3, #8]
 8001dcc:	f441 4160 	orrmi.w	r1, r1, #57344	; 0xe000
 8001dd0:	6099      	strmi	r1, [r3, #8]
 8001dd2:	4923      	ldr	r1, [pc, #140]	; (8001e60 <HAL_RCC_ClockConfig+0x128>)
 8001dd4:	68a0      	ldr	r0, [r4, #8]
 8001dd6:	688b      	ldr	r3, [r1, #8]
 8001dd8:	f023 03f0 	bic.w	r3, r3, #240	; 0xf0
 8001ddc:	4303      	orrs	r3, r0
 8001dde:	608b      	str	r3, [r1, #8]
 8001de0:	e7bb      	b.n	8001d5a <HAL_RCC_ClockConfig+0x22>
 8001de2:	6862      	ldr	r2, [r4, #4]
 8001de4:	4b1e      	ldr	r3, [pc, #120]	; (8001e60 <HAL_RCC_ClockConfig+0x128>)
 8001de6:	2a01      	cmp	r2, #1
 8001de8:	d11c      	bne.n	8001e24 <HAL_RCC_ClockConfig+0xec>
 8001dea:	681b      	ldr	r3, [r3, #0]
 8001dec:	f413 3f00 	tst.w	r3, #131072	; 0x20000
 8001df0:	d0a7      	beq.n	8001d42 <HAL_RCC_ClockConfig+0xa>
 8001df2:	4e1b      	ldr	r6, [pc, #108]	; (8001e60 <HAL_RCC_ClockConfig+0x128>)
 8001df4:	68b3      	ldr	r3, [r6, #8]
 8001df6:	f023 0303 	bic.w	r3, r3, #3
 8001dfa:	4313      	orrs	r3, r2
 8001dfc:	60b3      	str	r3, [r6, #8]
 8001dfe:	f7ff fdb1 	bl	8001964 <HAL_GetTick>
 8001e02:	f241 3888 	movw	r8, #5000	; 0x1388
 8001e06:	4607      	mov	r7, r0
 8001e08:	68b3      	ldr	r3, [r6, #8]
 8001e0a:	6862      	ldr	r2, [r4, #4]
 8001e0c:	f003 030c 	and.w	r3, r3, #12
 8001e10:	ebb3 0f82 	cmp.w	r3, r2, lsl #2
 8001e14:	d0a3      	beq.n	8001d5e <HAL_RCC_ClockConfig+0x26>
 8001e16:	f7ff fda5 	bl	8001964 <HAL_GetTick>
 8001e1a:	1bc0      	subs	r0, r0, r7
 8001e1c:	4540      	cmp	r0, r8
 8001e1e:	d9f3      	bls.n	8001e08 <HAL_RCC_ClockConfig+0xd0>
 8001e20:	2003      	movs	r0, #3
 8001e22:	e78f      	b.n	8001d44 <HAL_RCC_ClockConfig+0xc>
 8001e24:	1e91      	subs	r1, r2, #2
 8001e26:	2901      	cmp	r1, #1
 8001e28:	681b      	ldr	r3, [r3, #0]
 8001e2a:	d802      	bhi.n	8001e32 <HAL_RCC_ClockConfig+0xfa>
 8001e2c:	f013 7f00 	tst.w	r3, #33554432	; 0x2000000
 8001e30:	e7de      	b.n	8001df0 <HAL_RCC_ClockConfig+0xb8>
 8001e32:	f013 0f02 	tst.w	r3, #2
 8001e36:	e7db      	b.n	8001df0 <HAL_RCC_ClockConfig+0xb8>
 8001e38:	b2ea      	uxtb	r2, r5
 8001e3a:	701a      	strb	r2, [r3, #0]
 8001e3c:	681b      	ldr	r3, [r3, #0]
 8001e3e:	f003 0307 	and.w	r3, r3, #7
 8001e42:	42ab      	cmp	r3, r5
 8001e44:	f47f af7d 	bne.w	8001d42 <HAL_RCC_ClockConfig+0xa>
 8001e48:	e78f      	b.n	8001d6a <HAL_RCC_ClockConfig+0x32>
 8001e4a:	4905      	ldr	r1, [pc, #20]	; (8001e60 <HAL_RCC_ClockConfig+0x128>)
 8001e4c:	68e0      	ldr	r0, [r4, #12]
 8001e4e:	688b      	ldr	r3, [r1, #8]
 8001e50:	f423 53e0 	bic.w	r3, r3, #7168	; 0x1c00
 8001e54:	4303      	orrs	r3, r0
 8001e56:	608b      	str	r3, [r1, #8]
 8001e58:	e78a      	b.n	8001d70 <HAL_RCC_ClockConfig+0x38>
 8001e5a:	bf00      	nop
 8001e5c:	40023c00 	.word	0x40023c00
 8001e60:	40023800 	.word	0x40023800
 8001e64:	08005712 	.word	0x08005712
 8001e68:	2000003c 	.word	0x2000003c
 8001e6c:	20000044 	.word	0x20000044

08001e70 <HAL_RCC_OscConfig>:
 8001e70:	e92d 41f3 	stmdb	sp!, {r0, r1, r4, r5, r6, r7, r8, lr}
 8001e74:	4604      	mov	r4, r0
 8001e76:	b340      	cbz	r0, 8001eca <HAL_RCC_OscConfig+0x5a>
 8001e78:	6803      	ldr	r3, [r0, #0]
 8001e7a:	07dd      	lsls	r5, r3, #31
 8001e7c:	d410      	bmi.n	8001ea0 <HAL_RCC_OscConfig+0x30>
 8001e7e:	6823      	ldr	r3, [r4, #0]
 8001e80:	0798      	lsls	r0, r3, #30
 8001e82:	d45e      	bmi.n	8001f42 <HAL_RCC_OscConfig+0xd2>
 8001e84:	6823      	ldr	r3, [r4, #0]
 8001e86:	071a      	lsls	r2, r3, #28
 8001e88:	f100 80a0 	bmi.w	8001fcc <HAL_RCC_OscConfig+0x15c>
 8001e8c:	6823      	ldr	r3, [r4, #0]
 8001e8e:	075b      	lsls	r3, r3, #29
 8001e90:	f100 80be 	bmi.w	8002010 <HAL_RCC_OscConfig+0x1a0>
 8001e94:	69a0      	ldr	r0, [r4, #24]
 8001e96:	2800      	cmp	r0, #0
 8001e98:	f040 811f 	bne.w	80020da <HAL_RCC_OscConfig+0x26a>
 8001e9c:	2000      	movs	r0, #0
 8001e9e:	e02b      	b.n	8001ef8 <HAL_RCC_OscConfig+0x88>
 8001ea0:	4ba7      	ldr	r3, [pc, #668]	; (8002140 <HAL_RCC_OscConfig+0x2d0>)
 8001ea2:	689a      	ldr	r2, [r3, #8]
 8001ea4:	f002 020c 	and.w	r2, r2, #12
 8001ea8:	2a04      	cmp	r2, #4
 8001eaa:	d007      	beq.n	8001ebc <HAL_RCC_OscConfig+0x4c>
 8001eac:	689a      	ldr	r2, [r3, #8]
 8001eae:	f002 020c 	and.w	r2, r2, #12
 8001eb2:	2a08      	cmp	r2, #8
 8001eb4:	d10b      	bne.n	8001ece <HAL_RCC_OscConfig+0x5e>
 8001eb6:	685a      	ldr	r2, [r3, #4]
 8001eb8:	0251      	lsls	r1, r2, #9
 8001eba:	d508      	bpl.n	8001ece <HAL_RCC_OscConfig+0x5e>
 8001ebc:	4ba0      	ldr	r3, [pc, #640]	; (8002140 <HAL_RCC_OscConfig+0x2d0>)
 8001ebe:	681b      	ldr	r3, [r3, #0]
 8001ec0:	039a      	lsls	r2, r3, #14
 8001ec2:	d5dc      	bpl.n	8001e7e <HAL_RCC_OscConfig+0xe>
 8001ec4:	6863      	ldr	r3, [r4, #4]
 8001ec6:	2b00      	cmp	r3, #0
 8001ec8:	d1d9      	bne.n	8001e7e <HAL_RCC_OscConfig+0xe>
 8001eca:	2001      	movs	r0, #1
 8001ecc:	e014      	b.n	8001ef8 <HAL_RCC_OscConfig+0x88>
 8001ece:	6862      	ldr	r2, [r4, #4]
 8001ed0:	f5b2 3f80 	cmp.w	r2, #65536	; 0x10000
 8001ed4:	d113      	bne.n	8001efe <HAL_RCC_OscConfig+0x8e>
 8001ed6:	681a      	ldr	r2, [r3, #0]
 8001ed8:	f442 3280 	orr.w	r2, r2, #65536	; 0x10000
 8001edc:	601a      	str	r2, [r3, #0]
 8001ede:	f7ff fd41 	bl	8001964 <HAL_GetTick>
 8001ee2:	4e97      	ldr	r6, [pc, #604]	; (8002140 <HAL_RCC_OscConfig+0x2d0>)
 8001ee4:	4605      	mov	r5, r0
 8001ee6:	6833      	ldr	r3, [r6, #0]
 8001ee8:	039b      	lsls	r3, r3, #14
 8001eea:	d4c8      	bmi.n	8001e7e <HAL_RCC_OscConfig+0xe>
 8001eec:	f7ff fd3a 	bl	8001964 <HAL_GetTick>
 8001ef0:	1b40      	subs	r0, r0, r5
 8001ef2:	2864      	cmp	r0, #100	; 0x64
 8001ef4:	d9f7      	bls.n	8001ee6 <HAL_RCC_OscConfig+0x76>
 8001ef6:	2003      	movs	r0, #3
 8001ef8:	b002      	add	sp, #8
 8001efa:	e8bd 81f0 	ldmia.w	sp!, {r4, r5, r6, r7, r8, pc}
 8001efe:	4d90      	ldr	r5, [pc, #576]	; (8002140 <HAL_RCC_OscConfig+0x2d0>)
 8001f00:	f5b2 2fa0 	cmp.w	r2, #327680	; 0x50000
 8001f04:	682b      	ldr	r3, [r5, #0]
 8001f06:	d107      	bne.n	8001f18 <HAL_RCC_OscConfig+0xa8>
 8001f08:	f443 2380 	orr.w	r3, r3, #262144	; 0x40000
 8001f0c:	602b      	str	r3, [r5, #0]
 8001f0e:	682b      	ldr	r3, [r5, #0]
 8001f10:	f443 3380 	orr.w	r3, r3, #65536	; 0x10000
 8001f14:	602b      	str	r3, [r5, #0]
 8001f16:	e7e2      	b.n	8001ede <HAL_RCC_OscConfig+0x6e>
 8001f18:	f423 3380 	bic.w	r3, r3, #65536	; 0x10000
 8001f1c:	602b      	str	r3, [r5, #0]
 8001f1e:	682b      	ldr	r3, [r5, #0]
 8001f20:	f423 2380 	bic.w	r3, r3, #262144	; 0x40000
 8001f24:	602b      	str	r3, [r5, #0]
 8001f26:	2a00      	cmp	r2, #0
 8001f28:	d1d9      	bne.n	8001ede <HAL_RCC_OscConfig+0x6e>
 8001f2a:	f7ff fd1b 	bl	8001964 <HAL_GetTick>
 8001f2e:	4606      	mov	r6, r0
 8001f30:	682b      	ldr	r3, [r5, #0]
 8001f32:	039f      	lsls	r7, r3, #14
 8001f34:	d5a3      	bpl.n	8001e7e <HAL_RCC_OscConfig+0xe>
 8001f36:	f7ff fd15 	bl	8001964 <HAL_GetTick>
 8001f3a:	1b80      	subs	r0, r0, r6
 8001f3c:	2864      	cmp	r0, #100	; 0x64
 8001f3e:	d9f7      	bls.n	8001f30 <HAL_RCC_OscConfig+0xc0>
 8001f40:	e7d9      	b.n	8001ef6 <HAL_RCC_OscConfig+0x86>
 8001f42:	4b7f      	ldr	r3, [pc, #508]	; (8002140 <HAL_RCC_OscConfig+0x2d0>)
 8001f44:	689a      	ldr	r2, [r3, #8]
 8001f46:	f012 0f0c 	tst.w	r2, #12
 8001f4a:	d007      	beq.n	8001f5c <HAL_RCC_OscConfig+0xec>
 8001f4c:	689a      	ldr	r2, [r3, #8]
 8001f4e:	f002 020c 	and.w	r2, r2, #12
 8001f52:	2a08      	cmp	r2, #8
 8001f54:	d111      	bne.n	8001f7a <HAL_RCC_OscConfig+0x10a>
 8001f56:	685b      	ldr	r3, [r3, #4]
 8001f58:	025e      	lsls	r6, r3, #9
 8001f5a:	d40e      	bmi.n	8001f7a <HAL_RCC_OscConfig+0x10a>
 8001f5c:	4b78      	ldr	r3, [pc, #480]	; (8002140 <HAL_RCC_OscConfig+0x2d0>)
 8001f5e:	681a      	ldr	r2, [r3, #0]
 8001f60:	0795      	lsls	r5, r2, #30
 8001f62:	d502      	bpl.n	8001f6a <HAL_RCC_OscConfig+0xfa>
 8001f64:	68e2      	ldr	r2, [r4, #12]
 8001f66:	2a01      	cmp	r2, #1
 8001f68:	d1af      	bne.n	8001eca <HAL_RCC_OscConfig+0x5a>
 8001f6a:	681a      	ldr	r2, [r3, #0]
 8001f6c:	6921      	ldr	r1, [r4, #16]
 8001f6e:	f022 02f8 	bic.w	r2, r2, #248	; 0xf8
 8001f72:	ea42 02c1 	orr.w	r2, r2, r1, lsl #3
 8001f76:	601a      	str	r2, [r3, #0]
 8001f78:	e784      	b.n	8001e84 <HAL_RCC_OscConfig+0x14>
 8001f7a:	68e2      	ldr	r2, [r4, #12]
 8001f7c:	4b71      	ldr	r3, [pc, #452]	; (8002144 <HAL_RCC_OscConfig+0x2d4>)
 8001f7e:	b1b2      	cbz	r2, 8001fae <HAL_RCC_OscConfig+0x13e>
 8001f80:	2201      	movs	r2, #1
 8001f82:	601a      	str	r2, [r3, #0]
 8001f84:	f7ff fcee 	bl	8001964 <HAL_GetTick>
 8001f88:	4d6d      	ldr	r5, [pc, #436]	; (8002140 <HAL_RCC_OscConfig+0x2d0>)
 8001f8a:	4606      	mov	r6, r0
 8001f8c:	682b      	ldr	r3, [r5, #0]
 8001f8e:	0798      	lsls	r0, r3, #30
 8001f90:	d507      	bpl.n	8001fa2 <HAL_RCC_OscConfig+0x132>
 8001f92:	682b      	ldr	r3, [r5, #0]
 8001f94:	6922      	ldr	r2, [r4, #16]
 8001f96:	f023 03f8 	bic.w	r3, r3, #248	; 0xf8
 8001f9a:	ea43 03c2 	orr.w	r3, r3, r2, lsl #3
 8001f9e:	602b      	str	r3, [r5, #0]
 8001fa0:	e770      	b.n	8001e84 <HAL_RCC_OscConfig+0x14>
 8001fa2:	f7ff fcdf 	bl	8001964 <HAL_GetTick>
 8001fa6:	1b80      	subs	r0, r0, r6
 8001fa8:	2802      	cmp	r0, #2
 8001faa:	d9ef      	bls.n	8001f8c <HAL_RCC_OscConfig+0x11c>
 8001fac:	e7a3      	b.n	8001ef6 <HAL_RCC_OscConfig+0x86>
 8001fae:	601a      	str	r2, [r3, #0]
 8001fb0:	f7ff fcd8 	bl	8001964 <HAL_GetTick>
 8001fb4:	4e62      	ldr	r6, [pc, #392]	; (8002140 <HAL_RCC_OscConfig+0x2d0>)
 8001fb6:	4605      	mov	r5, r0
 8001fb8:	6833      	ldr	r3, [r6, #0]
 8001fba:	0799      	lsls	r1, r3, #30
 8001fbc:	f57f af62 	bpl.w	8001e84 <HAL_RCC_OscConfig+0x14>
 8001fc0:	f7ff fcd0 	bl	8001964 <HAL_GetTick>
 8001fc4:	1b40      	subs	r0, r0, r5
 8001fc6:	2802      	cmp	r0, #2
 8001fc8:	d9f6      	bls.n	8001fb8 <HAL_RCC_OscConfig+0x148>
 8001fca:	e794      	b.n	8001ef6 <HAL_RCC_OscConfig+0x86>
 8001fcc:	6962      	ldr	r2, [r4, #20]
 8001fce:	4b5e      	ldr	r3, [pc, #376]	; (8002148 <HAL_RCC_OscConfig+0x2d8>)
 8001fd0:	b17a      	cbz	r2, 8001ff2 <HAL_RCC_OscConfig+0x182>
 8001fd2:	2201      	movs	r2, #1
 8001fd4:	601a      	str	r2, [r3, #0]
 8001fd6:	f7ff fcc5 	bl	8001964 <HAL_GetTick>
 8001fda:	4e59      	ldr	r6, [pc, #356]	; (8002140 <HAL_RCC_OscConfig+0x2d0>)
 8001fdc:	4605      	mov	r5, r0
 8001fde:	6f73      	ldr	r3, [r6, #116]	; 0x74
 8001fe0:	079f      	lsls	r7, r3, #30
 8001fe2:	f53f af53 	bmi.w	8001e8c <HAL_RCC_OscConfig+0x1c>
 8001fe6:	f7ff fcbd 	bl	8001964 <HAL_GetTick>
 8001fea:	1b40      	subs	r0, r0, r5
 8001fec:	2802      	cmp	r0, #2
 8001fee:	d9f6      	bls.n	8001fde <HAL_RCC_OscConfig+0x16e>
 8001ff0:	e781      	b.n	8001ef6 <HAL_RCC_OscConfig+0x86>
 8001ff2:	601a      	str	r2, [r3, #0]
 8001ff4:	f7ff fcb6 	bl	8001964 <HAL_GetTick>
 8001ff8:	4e51      	ldr	r6, [pc, #324]	; (8002140 <HAL_RCC_OscConfig+0x2d0>)
 8001ffa:	4605      	mov	r5, r0
 8001ffc:	6f73      	ldr	r3, [r6, #116]	; 0x74
 8001ffe:	0798      	lsls	r0, r3, #30
 8002000:	f57f af44 	bpl.w	8001e8c <HAL_RCC_OscConfig+0x1c>
 8002004:	f7ff fcae 	bl	8001964 <HAL_GetTick>
 8002008:	1b40      	subs	r0, r0, r5
 800200a:	2802      	cmp	r0, #2
 800200c:	d9f6      	bls.n	8001ffc <HAL_RCC_OscConfig+0x18c>
 800200e:	e772      	b.n	8001ef6 <HAL_RCC_OscConfig+0x86>
 8002010:	4b4b      	ldr	r3, [pc, #300]	; (8002140 <HAL_RCC_OscConfig+0x2d0>)
 8002012:	6c1a      	ldr	r2, [r3, #64]	; 0x40
 8002014:	f012 5280 	ands.w	r2, r2, #268435456	; 0x10000000
 8002018:	d128      	bne.n	800206c <HAL_RCC_OscConfig+0x1fc>
 800201a:	9201      	str	r2, [sp, #4]
 800201c:	6c1a      	ldr	r2, [r3, #64]	; 0x40
 800201e:	f042 5280 	orr.w	r2, r2, #268435456	; 0x10000000
 8002022:	641a      	str	r2, [r3, #64]	; 0x40
 8002024:	6c1b      	ldr	r3, [r3, #64]	; 0x40
 8002026:	f003 5380 	and.w	r3, r3, #268435456	; 0x10000000
 800202a:	9301      	str	r3, [sp, #4]
 800202c:	9b01      	ldr	r3, [sp, #4]
 800202e:	2701      	movs	r7, #1
 8002030:	4d46      	ldr	r5, [pc, #280]	; (800214c <HAL_RCC_OscConfig+0x2dc>)
 8002032:	682b      	ldr	r3, [r5, #0]
 8002034:	05d9      	lsls	r1, r3, #23
 8002036:	d51b      	bpl.n	8002070 <HAL_RCC_OscConfig+0x200>
 8002038:	68a3      	ldr	r3, [r4, #8]
 800203a:	4d41      	ldr	r5, [pc, #260]	; (8002140 <HAL_RCC_OscConfig+0x2d0>)
 800203c:	2b01      	cmp	r3, #1
 800203e:	d127      	bne.n	8002090 <HAL_RCC_OscConfig+0x220>
 8002040:	6f2b      	ldr	r3, [r5, #112]	; 0x70
 8002042:	f043 0301 	orr.w	r3, r3, #1
 8002046:	672b      	str	r3, [r5, #112]	; 0x70
 8002048:	f7ff fc8c 	bl	8001964 <HAL_GetTick>
 800204c:	4e3c      	ldr	r6, [pc, #240]	; (8002140 <HAL_RCC_OscConfig+0x2d0>)
 800204e:	4605      	mov	r5, r0
 8002050:	f241 3888 	movw	r8, #5000	; 0x1388
 8002054:	6f33      	ldr	r3, [r6, #112]	; 0x70
 8002056:	079b      	lsls	r3, r3, #30
 8002058:	d539      	bpl.n	80020ce <HAL_RCC_OscConfig+0x25e>
 800205a:	2f00      	cmp	r7, #0
 800205c:	f43f af1a 	beq.w	8001e94 <HAL_RCC_OscConfig+0x24>
 8002060:	4a37      	ldr	r2, [pc, #220]	; (8002140 <HAL_RCC_OscConfig+0x2d0>)
 8002062:	6c13      	ldr	r3, [r2, #64]	; 0x40
 8002064:	f023 5380 	bic.w	r3, r3, #268435456	; 0x10000000
 8002068:	6413      	str	r3, [r2, #64]	; 0x40
 800206a:	e713      	b.n	8001e94 <HAL_RCC_OscConfig+0x24>
 800206c:	2700      	movs	r7, #0
 800206e:	e7df      	b.n	8002030 <HAL_RCC_OscConfig+0x1c0>
 8002070:	682b      	ldr	r3, [r5, #0]
 8002072:	f443 7380 	orr.w	r3, r3, #256	; 0x100
 8002076:	602b      	str	r3, [r5, #0]
 8002078:	f7ff fc74 	bl	8001964 <HAL_GetTick>
 800207c:	4606      	mov	r6, r0
 800207e:	682b      	ldr	r3, [r5, #0]
 8002080:	05da      	lsls	r2, r3, #23
 8002082:	d4d9      	bmi.n	8002038 <HAL_RCC_OscConfig+0x1c8>
 8002084:	f7ff fc6e 	bl	8001964 <HAL_GetTick>
 8002088:	1b80      	subs	r0, r0, r6
 800208a:	2802      	cmp	r0, #2
 800208c:	d9f7      	bls.n	800207e <HAL_RCC_OscConfig+0x20e>
 800208e:	e732      	b.n	8001ef6 <HAL_RCC_OscConfig+0x86>
 8002090:	2b05      	cmp	r3, #5
 8002092:	d104      	bne.n	800209e <HAL_RCC_OscConfig+0x22e>
 8002094:	6f2b      	ldr	r3, [r5, #112]	; 0x70
 8002096:	f043 0304 	orr.w	r3, r3, #4
 800209a:	672b      	str	r3, [r5, #112]	; 0x70
 800209c:	e7d0      	b.n	8002040 <HAL_RCC_OscConfig+0x1d0>
 800209e:	6f2a      	ldr	r2, [r5, #112]	; 0x70
 80020a0:	f022 0201 	bic.w	r2, r2, #1
 80020a4:	672a      	str	r2, [r5, #112]	; 0x70
 80020a6:	6f2a      	ldr	r2, [r5, #112]	; 0x70
 80020a8:	f022 0204 	bic.w	r2, r2, #4
 80020ac:	672a      	str	r2, [r5, #112]	; 0x70
 80020ae:	2b00      	cmp	r3, #0
 80020b0:	d1ca      	bne.n	8002048 <HAL_RCC_OscConfig+0x1d8>
 80020b2:	f7ff fc57 	bl	8001964 <HAL_GetTick>
 80020b6:	f241 3888 	movw	r8, #5000	; 0x1388
 80020ba:	4606      	mov	r6, r0
 80020bc:	6f2b      	ldr	r3, [r5, #112]	; 0x70
 80020be:	0798      	lsls	r0, r3, #30
 80020c0:	d5cb      	bpl.n	800205a <HAL_RCC_OscConfig+0x1ea>
 80020c2:	f7ff fc4f 	bl	8001964 <HAL_GetTick>
 80020c6:	1b80      	subs	r0, r0, r6
 80020c8:	4540      	cmp	r0, r8
 80020ca:	d9f7      	bls.n	80020bc <HAL_RCC_OscConfig+0x24c>
 80020cc:	e713      	b.n	8001ef6 <HAL_RCC_OscConfig+0x86>
 80020ce:	f7ff fc49 	bl	8001964 <HAL_GetTick>
 80020d2:	1b40      	subs	r0, r0, r5
 80020d4:	4540      	cmp	r0, r8
 80020d6:	d9bd      	bls.n	8002054 <HAL_RCC_OscConfig+0x1e4>
 80020d8:	e70d      	b.n	8001ef6 <HAL_RCC_OscConfig+0x86>
 80020da:	4d19      	ldr	r5, [pc, #100]	; (8002140 <HAL_RCC_OscConfig+0x2d0>)
 80020dc:	68ab      	ldr	r3, [r5, #8]
 80020de:	f003 030c 	and.w	r3, r3, #12
 80020e2:	2b08      	cmp	r3, #8
 80020e4:	d049      	beq.n	800217a <HAL_RCC_OscConfig+0x30a>
 80020e6:	4e1a      	ldr	r6, [pc, #104]	; (8002150 <HAL_RCC_OscConfig+0x2e0>)
 80020e8:	2300      	movs	r3, #0
 80020ea:	2802      	cmp	r0, #2
 80020ec:	6033      	str	r3, [r6, #0]
 80020ee:	d137      	bne.n	8002160 <HAL_RCC_OscConfig+0x2f0>
 80020f0:	f7ff fc38 	bl	8001964 <HAL_GetTick>
 80020f4:	4607      	mov	r7, r0
 80020f6:	682b      	ldr	r3, [r5, #0]
 80020f8:	0199      	lsls	r1, r3, #6
 80020fa:	d42b      	bmi.n	8002154 <HAL_RCC_OscConfig+0x2e4>
 80020fc:	e9d4 3207 	ldrd	r3, r2, [r4, #28]
 8002100:	4313      	orrs	r3, r2
 8002102:	6a62      	ldr	r2, [r4, #36]	; 0x24
 8002104:	ea43 1382 	orr.w	r3, r3, r2, lsl #6
 8002108:	6ae2      	ldr	r2, [r4, #44]	; 0x2c
 800210a:	ea43 6302 	orr.w	r3, r3, r2, lsl #24
 800210e:	6b22      	ldr	r2, [r4, #48]	; 0x30
 8002110:	ea43 7302 	orr.w	r3, r3, r2, lsl #28
 8002114:	6aa2      	ldr	r2, [r4, #40]	; 0x28
 8002116:	0852      	lsrs	r2, r2, #1
 8002118:	3a01      	subs	r2, #1
 800211a:	ea43 4302 	orr.w	r3, r3, r2, lsl #16
 800211e:	606b      	str	r3, [r5, #4]
 8002120:	2301      	movs	r3, #1
 8002122:	6033      	str	r3, [r6, #0]
 8002124:	f7ff fc1e 	bl	8001964 <HAL_GetTick>
 8002128:	4d05      	ldr	r5, [pc, #20]	; (8002140 <HAL_RCC_OscConfig+0x2d0>)
 800212a:	4604      	mov	r4, r0
 800212c:	682b      	ldr	r3, [r5, #0]
 800212e:	019a      	lsls	r2, r3, #6
 8002130:	f53f aeb4 	bmi.w	8001e9c <HAL_RCC_OscConfig+0x2c>
 8002134:	f7ff fc16 	bl	8001964 <HAL_GetTick>
 8002138:	1b00      	subs	r0, r0, r4
 800213a:	2802      	cmp	r0, #2
 800213c:	d9f6      	bls.n	800212c <HAL_RCC_OscConfig+0x2bc>
 800213e:	e6da      	b.n	8001ef6 <HAL_RCC_OscConfig+0x86>
 8002140:	40023800 	.word	0x40023800
 8002144:	42470000 	.word	0x42470000
 8002148:	42470e80 	.word	0x42470e80
 800214c:	40007000 	.word	0x40007000
 8002150:	42470060 	.word	0x42470060
 8002154:	f7ff fc06 	bl	8001964 <HAL_GetTick>
 8002158:	1bc0      	subs	r0, r0, r7
 800215a:	2802      	cmp	r0, #2
 800215c:	d9cb      	bls.n	80020f6 <HAL_RCC_OscConfig+0x286>
 800215e:	e6ca      	b.n	8001ef6 <HAL_RCC_OscConfig+0x86>
 8002160:	f7ff fc00 	bl	8001964 <HAL_GetTick>
 8002164:	4604      	mov	r4, r0
 8002166:	682b      	ldr	r3, [r5, #0]
 8002168:	019b      	lsls	r3, r3, #6
 800216a:	f57f ae97 	bpl.w	8001e9c <HAL_RCC_OscConfig+0x2c>
 800216e:	f7ff fbf9 	bl	8001964 <HAL_GetTick>
 8002172:	1b00      	subs	r0, r0, r4
 8002174:	2802      	cmp	r0, #2
 8002176:	d9f6      	bls.n	8002166 <HAL_RCC_OscConfig+0x2f6>
 8002178:	e6bd      	b.n	8001ef6 <HAL_RCC_OscConfig+0x86>
 800217a:	2801      	cmp	r0, #1
 800217c:	f43f aebc 	beq.w	8001ef8 <HAL_RCC_OscConfig+0x88>
 8002180:	686b      	ldr	r3, [r5, #4]
 8002182:	69e2      	ldr	r2, [r4, #28]
 8002184:	f403 0180 	and.w	r1, r3, #4194304	; 0x400000
 8002188:	4291      	cmp	r1, r2
 800218a:	f47f ae9e 	bne.w	8001eca <HAL_RCC_OscConfig+0x5a>
 800218e:	6a21      	ldr	r1, [r4, #32]
 8002190:	f003 023f 	and.w	r2, r3, #63	; 0x3f
 8002194:	428a      	cmp	r2, r1
 8002196:	f47f ae98 	bne.w	8001eca <HAL_RCC_OscConfig+0x5a>
 800219a:	6a61      	ldr	r1, [r4, #36]	; 0x24
 800219c:	f647 72c0 	movw	r2, #32704	; 0x7fc0
 80021a0:	401a      	ands	r2, r3
 80021a2:	ebb2 1f81 	cmp.w	r2, r1, lsl #6
 80021a6:	f47f ae90 	bne.w	8001eca <HAL_RCC_OscConfig+0x5a>
 80021aa:	6aa2      	ldr	r2, [r4, #40]	; 0x28
 80021ac:	0852      	lsrs	r2, r2, #1
 80021ae:	f403 3140 	and.w	r1, r3, #196608	; 0x30000
 80021b2:	3a01      	subs	r2, #1
 80021b4:	ebb1 4f02 	cmp.w	r1, r2, lsl #16
 80021b8:	f47f ae87 	bne.w	8001eca <HAL_RCC_OscConfig+0x5a>
 80021bc:	6ae1      	ldr	r1, [r4, #44]	; 0x2c
 80021be:	f003 6270 	and.w	r2, r3, #251658240	; 0xf000000
 80021c2:	ebb2 6f01 	cmp.w	r2, r1, lsl #24
 80021c6:	f47f ae80 	bne.w	8001eca <HAL_RCC_OscConfig+0x5a>
 80021ca:	6b22      	ldr	r2, [r4, #48]	; 0x30
 80021cc:	f003 43e0 	and.w	r3, r3, #1879048192	; 0x70000000
 80021d0:	ebb3 7f02 	cmp.w	r3, r2, lsl #28
 80021d4:	f43f ae62 	beq.w	8001e9c <HAL_RCC_OscConfig+0x2c>
 80021d8:	e677      	b.n	8001eca <HAL_RCC_OscConfig+0x5a>
 80021da:	bf00      	nop

080021dc <TIM_OC1_SetConfig>:
 80021dc:	6a03      	ldr	r3, [r0, #32]
 80021de:	f023 0301 	bic.w	r3, r3, #1
 80021e2:	6203      	str	r3, [r0, #32]
 80021e4:	6a03      	ldr	r3, [r0, #32]
 80021e6:	b570      	push	{r4, r5, r6, lr}
 80021e8:	6844      	ldr	r4, [r0, #4]
 80021ea:	6982      	ldr	r2, [r0, #24]
 80021ec:	680d      	ldr	r5, [r1, #0]
 80021ee:	f022 0273 	bic.w	r2, r2, #115	; 0x73
 80021f2:	432a      	orrs	r2, r5
 80021f4:	688d      	ldr	r5, [r1, #8]
 80021f6:	f023 0302 	bic.w	r3, r3, #2
 80021fa:	432b      	orrs	r3, r5
 80021fc:	4d0e      	ldr	r5, [pc, #56]	; (8002238 <TIM_OC1_SetConfig+0x5c>)
 80021fe:	42a8      	cmp	r0, r5
 8002200:	d002      	beq.n	8002208 <TIM_OC1_SetConfig+0x2c>
 8002202:	4e0e      	ldr	r6, [pc, #56]	; (800223c <TIM_OC1_SetConfig+0x60>)
 8002204:	42b0      	cmp	r0, r6
 8002206:	d110      	bne.n	800222a <TIM_OC1_SetConfig+0x4e>
 8002208:	68ce      	ldr	r6, [r1, #12]
 800220a:	f023 0308 	bic.w	r3, r3, #8
 800220e:	4333      	orrs	r3, r6
 8002210:	42a8      	cmp	r0, r5
 8002212:	f023 0304 	bic.w	r3, r3, #4
 8002216:	d002      	beq.n	800221e <TIM_OC1_SetConfig+0x42>
 8002218:	4d08      	ldr	r5, [pc, #32]	; (800223c <TIM_OC1_SetConfig+0x60>)
 800221a:	42a8      	cmp	r0, r5
 800221c:	d105      	bne.n	800222a <TIM_OC1_SetConfig+0x4e>
 800221e:	e9d1 5605 	ldrd	r5, r6, [r1, #20]
 8002222:	f424 7440 	bic.w	r4, r4, #768	; 0x300
 8002226:	4335      	orrs	r5, r6
 8002228:	432c      	orrs	r4, r5
 800222a:	6044      	str	r4, [r0, #4]
 800222c:	6182      	str	r2, [r0, #24]
 800222e:	684a      	ldr	r2, [r1, #4]
 8002230:	6342      	str	r2, [r0, #52]	; 0x34
 8002232:	6203      	str	r3, [r0, #32]
 8002234:	bd70      	pop	{r4, r5, r6, pc}
 8002236:	bf00      	nop
 8002238:	40010000 	.word	0x40010000
 800223c:	40010400 	.word	0x40010400

08002240 <TIM_OC3_SetConfig>:
 8002240:	6a03      	ldr	r3, [r0, #32]
 8002242:	f423 7380 	bic.w	r3, r3, #256	; 0x100
 8002246:	6203      	str	r3, [r0, #32]
 8002248:	6a03      	ldr	r3, [r0, #32]
 800224a:	b570      	push	{r4, r5, r6, lr}
 800224c:	6844      	ldr	r4, [r0, #4]
 800224e:	69c2      	ldr	r2, [r0, #28]
 8002250:	680d      	ldr	r5, [r1, #0]
 8002252:	f022 0273 	bic.w	r2, r2, #115	; 0x73
 8002256:	432a      	orrs	r2, r5
 8002258:	688d      	ldr	r5, [r1, #8]
 800225a:	f423 7300 	bic.w	r3, r3, #512	; 0x200
 800225e:	ea43 2305 	orr.w	r3, r3, r5, lsl #8
 8002262:	4d11      	ldr	r5, [pc, #68]	; (80022a8 <TIM_OC3_SetConfig+0x68>)
 8002264:	42a8      	cmp	r0, r5
 8002266:	d003      	beq.n	8002270 <TIM_OC3_SetConfig+0x30>
 8002268:	f505 6580 	add.w	r5, r5, #1024	; 0x400
 800226c:	42a8      	cmp	r0, r5
 800226e:	d114      	bne.n	800229a <TIM_OC3_SetConfig+0x5a>
 8002270:	68cd      	ldr	r5, [r1, #12]
 8002272:	f423 6300 	bic.w	r3, r3, #2048	; 0x800
 8002276:	ea43 2305 	orr.w	r3, r3, r5, lsl #8
 800227a:	4d0b      	ldr	r5, [pc, #44]	; (80022a8 <TIM_OC3_SetConfig+0x68>)
 800227c:	42a8      	cmp	r0, r5
 800227e:	f423 6380 	bic.w	r3, r3, #1024	; 0x400
 8002282:	d003      	beq.n	800228c <TIM_OC3_SetConfig+0x4c>
 8002284:	f505 6580 	add.w	r5, r5, #1024	; 0x400
 8002288:	42a8      	cmp	r0, r5
 800228a:	d106      	bne.n	800229a <TIM_OC3_SetConfig+0x5a>
 800228c:	e9d1 5605 	ldrd	r5, r6, [r1, #20]
 8002290:	f424 5440 	bic.w	r4, r4, #12288	; 0x3000
 8002294:	4335      	orrs	r5, r6
 8002296:	ea44 1405 	orr.w	r4, r4, r5, lsl #4
 800229a:	6044      	str	r4, [r0, #4]
 800229c:	61c2      	str	r2, [r0, #28]
 800229e:	684a      	ldr	r2, [r1, #4]
 80022a0:	63c2      	str	r2, [r0, #60]	; 0x3c
 80022a2:	6203      	str	r3, [r0, #32]
 80022a4:	bd70      	pop	{r4, r5, r6, pc}
 80022a6:	bf00      	nop
 80022a8:	40010000 	.word	0x40010000

080022ac <TIM_OC4_SetConfig>:
 80022ac:	6a03      	ldr	r3, [r0, #32]
 80022ae:	f423 5380 	bic.w	r3, r3, #4096	; 0x1000
 80022b2:	6203      	str	r3, [r0, #32]
 80022b4:	6a03      	ldr	r3, [r0, #32]
 80022b6:	b530      	push	{r4, r5, lr}
 80022b8:	6844      	ldr	r4, [r0, #4]
 80022ba:	69c2      	ldr	r2, [r0, #28]
 80022bc:	680d      	ldr	r5, [r1, #0]
 80022be:	f422 42e6 	bic.w	r2, r2, #29440	; 0x7300
 80022c2:	ea42 2205 	orr.w	r2, r2, r5, lsl #8
 80022c6:	688d      	ldr	r5, [r1, #8]
 80022c8:	f423 5300 	bic.w	r3, r3, #8192	; 0x2000
 80022cc:	ea43 3305 	orr.w	r3, r3, r5, lsl #12
 80022d0:	4d08      	ldr	r5, [pc, #32]	; (80022f4 <TIM_OC4_SetConfig+0x48>)
 80022d2:	42a8      	cmp	r0, r5
 80022d4:	d003      	beq.n	80022de <TIM_OC4_SetConfig+0x32>
 80022d6:	f505 6580 	add.w	r5, r5, #1024	; 0x400
 80022da:	42a8      	cmp	r0, r5
 80022dc:	d104      	bne.n	80022e8 <TIM_OC4_SetConfig+0x3c>
 80022de:	694d      	ldr	r5, [r1, #20]
 80022e0:	f424 4480 	bic.w	r4, r4, #16384	; 0x4000
 80022e4:	ea44 1485 	orr.w	r4, r4, r5, lsl #6
 80022e8:	6044      	str	r4, [r0, #4]
 80022ea:	61c2      	str	r2, [r0, #28]
 80022ec:	684a      	ldr	r2, [r1, #4]
 80022ee:	6402      	str	r2, [r0, #64]	; 0x40
 80022f0:	6203      	str	r3, [r0, #32]
 80022f2:	bd30      	pop	{r4, r5, pc}
 80022f4:	40010000 	.word	0x40010000

080022f8 <HAL_TIM_Base_Start_IT>:
 80022f8:	f890 303d 	ldrb.w	r3, [r0, #61]	; 0x3d
 80022fc:	2b01      	cmp	r3, #1
 80022fe:	d130      	bne.n	8002362 <HAL_TIM_Base_Start_IT+0x6a>
 8002300:	2302      	movs	r3, #2
 8002302:	f880 303d 	strb.w	r3, [r0, #61]	; 0x3d
 8002306:	6803      	ldr	r3, [r0, #0]
 8002308:	68da      	ldr	r2, [r3, #12]
 800230a:	f042 0201 	orr.w	r2, r2, #1
 800230e:	60da      	str	r2, [r3, #12]
 8002310:	4a15      	ldr	r2, [pc, #84]	; (8002368 <HAL_TIM_Base_Start_IT+0x70>)
 8002312:	4293      	cmp	r3, r2
 8002314:	d01a      	beq.n	800234c <HAL_TIM_Base_Start_IT+0x54>
 8002316:	f1b3 4f80 	cmp.w	r3, #1073741824	; 0x40000000
 800231a:	d017      	beq.n	800234c <HAL_TIM_Base_Start_IT+0x54>
 800231c:	f5a2 427c 	sub.w	r2, r2, #64512	; 0xfc00
 8002320:	4293      	cmp	r3, r2
 8002322:	d013      	beq.n	800234c <HAL_TIM_Base_Start_IT+0x54>
 8002324:	f502 6280 	add.w	r2, r2, #1024	; 0x400
 8002328:	4293      	cmp	r3, r2
 800232a:	d00f      	beq.n	800234c <HAL_TIM_Base_Start_IT+0x54>
 800232c:	f502 6280 	add.w	r2, r2, #1024	; 0x400
 8002330:	4293      	cmp	r3, r2
 8002332:	d00b      	beq.n	800234c <HAL_TIM_Base_Start_IT+0x54>
 8002334:	f502 4278 	add.w	r2, r2, #63488	; 0xf800
 8002338:	4293      	cmp	r3, r2
 800233a:	d007      	beq.n	800234c <HAL_TIM_Base_Start_IT+0x54>
 800233c:	f502 5270 	add.w	r2, r2, #15360	; 0x3c00
 8002340:	4293      	cmp	r3, r2
 8002342:	d003      	beq.n	800234c <HAL_TIM_Base_Start_IT+0x54>
 8002344:	f5a2 3294 	sub.w	r2, r2, #75776	; 0x12800
 8002348:	4293      	cmp	r3, r2
 800234a:	d104      	bne.n	8002356 <HAL_TIM_Base_Start_IT+0x5e>
 800234c:	689a      	ldr	r2, [r3, #8]
 800234e:	f002 0207 	and.w	r2, r2, #7
 8002352:	2a06      	cmp	r2, #6
 8002354:	d003      	beq.n	800235e <HAL_TIM_Base_Start_IT+0x66>
 8002356:	681a      	ldr	r2, [r3, #0]
 8002358:	f042 0201 	orr.w	r2, r2, #1
 800235c:	601a      	str	r2, [r3, #0]
 800235e:	2000      	movs	r0, #0
 8002360:	4770      	bx	lr
 8002362:	2001      	movs	r0, #1
 8002364:	4770      	bx	lr
 8002366:	bf00      	nop
 8002368:	40010000 	.word	0x40010000

0800236c <HAL_TIM_PWM_MspInit>:
 800236c:	4770      	bx	lr

0800236e <HAL_TIM_PeriodElapsedCallback>:
 800236e:	4770      	bx	lr

08002370 <HAL_TIM_OC_DelayElapsedCallback>:
 8002370:	4770      	bx	lr

08002372 <HAL_TIM_IC_CaptureCallback>:
 8002372:	4770      	bx	lr

08002374 <HAL_TIM_PWM_PulseFinishedCallback>:
 8002374:	4770      	bx	lr

08002376 <HAL_TIM_TriggerCallback>:
 8002376:	4770      	bx	lr

08002378 <HAL_TIM_IRQHandler>:
 8002378:	6803      	ldr	r3, [r0, #0]
 800237a:	691a      	ldr	r2, [r3, #16]
 800237c:	0791      	lsls	r1, r2, #30
 800237e:	b510      	push	{r4, lr}
 8002380:	4604      	mov	r4, r0
 8002382:	d50e      	bpl.n	80023a2 <HAL_TIM_IRQHandler+0x2a>
 8002384:	68da      	ldr	r2, [r3, #12]
 8002386:	0792      	lsls	r2, r2, #30
 8002388:	d50b      	bpl.n	80023a2 <HAL_TIM_IRQHandler+0x2a>
 800238a:	f06f 0202 	mvn.w	r2, #2
 800238e:	611a      	str	r2, [r3, #16]
 8002390:	2201      	movs	r2, #1
 8002392:	7702      	strb	r2, [r0, #28]
 8002394:	699b      	ldr	r3, [r3, #24]
 8002396:	079b      	lsls	r3, r3, #30
 8002398:	d077      	beq.n	800248a <HAL_TIM_IRQHandler+0x112>
 800239a:	f7ff ffea 	bl	8002372 <HAL_TIM_IC_CaptureCallback>
 800239e:	2300      	movs	r3, #0
 80023a0:	7723      	strb	r3, [r4, #28]
 80023a2:	6823      	ldr	r3, [r4, #0]
 80023a4:	691a      	ldr	r2, [r3, #16]
 80023a6:	0750      	lsls	r0, r2, #29
 80023a8:	d510      	bpl.n	80023cc <HAL_TIM_IRQHandler+0x54>
 80023aa:	68da      	ldr	r2, [r3, #12]
 80023ac:	0751      	lsls	r1, r2, #29
 80023ae:	d50d      	bpl.n	80023cc <HAL_TIM_IRQHandler+0x54>
 80023b0:	f06f 0204 	mvn.w	r2, #4
 80023b4:	611a      	str	r2, [r3, #16]
 80023b6:	2202      	movs	r2, #2
 80023b8:	7722      	strb	r2, [r4, #28]
 80023ba:	699b      	ldr	r3, [r3, #24]
 80023bc:	f413 7f40 	tst.w	r3, #768	; 0x300
 80023c0:	4620      	mov	r0, r4
 80023c2:	d068      	beq.n	8002496 <HAL_TIM_IRQHandler+0x11e>
 80023c4:	f7ff ffd5 	bl	8002372 <HAL_TIM_IC_CaptureCallback>
 80023c8:	2300      	movs	r3, #0
 80023ca:	7723      	strb	r3, [r4, #28]
 80023cc:	6823      	ldr	r3, [r4, #0]
 80023ce:	691a      	ldr	r2, [r3, #16]
 80023d0:	0712      	lsls	r2, r2, #28
 80023d2:	d50f      	bpl.n	80023f4 <HAL_TIM_IRQHandler+0x7c>
 80023d4:	68da      	ldr	r2, [r3, #12]
 80023d6:	0710      	lsls	r0, r2, #28
 80023d8:	d50c      	bpl.n	80023f4 <HAL_TIM_IRQHandler+0x7c>
 80023da:	f06f 0208 	mvn.w	r2, #8
 80023de:	611a      	str	r2, [r3, #16]
 80023e0:	2204      	movs	r2, #4
 80023e2:	7722      	strb	r2, [r4, #28]
 80023e4:	69db      	ldr	r3, [r3, #28]
 80023e6:	0799      	lsls	r1, r3, #30
 80023e8:	4620      	mov	r0, r4
 80023ea:	d05a      	beq.n	80024a2 <HAL_TIM_IRQHandler+0x12a>
 80023ec:	f7ff ffc1 	bl	8002372 <HAL_TIM_IC_CaptureCallback>
 80023f0:	2300      	movs	r3, #0
 80023f2:	7723      	strb	r3, [r4, #28]
 80023f4:	6823      	ldr	r3, [r4, #0]
 80023f6:	691a      	ldr	r2, [r3, #16]
 80023f8:	06d2      	lsls	r2, r2, #27
 80023fa:	d510      	bpl.n	800241e <HAL_TIM_IRQHandler+0xa6>
 80023fc:	68da      	ldr	r2, [r3, #12]
 80023fe:	06d0      	lsls	r0, r2, #27
 8002400:	d50d      	bpl.n	800241e <HAL_TIM_IRQHandler+0xa6>
 8002402:	f06f 0210 	mvn.w	r2, #16
 8002406:	611a      	str	r2, [r3, #16]
 8002408:	2208      	movs	r2, #8
 800240a:	7722      	strb	r2, [r4, #28]
 800240c:	69db      	ldr	r3, [r3, #28]
 800240e:	f413 7f40 	tst.w	r3, #768	; 0x300
 8002412:	4620      	mov	r0, r4
 8002414:	d04b      	beq.n	80024ae <HAL_TIM_IRQHandler+0x136>
 8002416:	f7ff ffac 	bl	8002372 <HAL_TIM_IC_CaptureCallback>
 800241a:	2300      	movs	r3, #0
 800241c:	7723      	strb	r3, [r4, #28]
 800241e:	6823      	ldr	r3, [r4, #0]
 8002420:	691a      	ldr	r2, [r3, #16]
 8002422:	07d1      	lsls	r1, r2, #31
 8002424:	d508      	bpl.n	8002438 <HAL_TIM_IRQHandler+0xc0>
 8002426:	68da      	ldr	r2, [r3, #12]
 8002428:	07d2      	lsls	r2, r2, #31
 800242a:	d505      	bpl.n	8002438 <HAL_TIM_IRQHandler+0xc0>
 800242c:	f06f 0201 	mvn.w	r2, #1
 8002430:	611a      	str	r2, [r3, #16]
 8002432:	4620      	mov	r0, r4
 8002434:	f7ff ff9b 	bl	800236e <HAL_TIM_PeriodElapsedCallback>
 8002438:	6823      	ldr	r3, [r4, #0]
 800243a:	691a      	ldr	r2, [r3, #16]
 800243c:	0610      	lsls	r0, r2, #24
 800243e:	d508      	bpl.n	8002452 <HAL_TIM_IRQHandler+0xda>
 8002440:	68da      	ldr	r2, [r3, #12]
 8002442:	0611      	lsls	r1, r2, #24
 8002444:	d505      	bpl.n	8002452 <HAL_TIM_IRQHandler+0xda>
 8002446:	f06f 0280 	mvn.w	r2, #128	; 0x80
 800244a:	611a      	str	r2, [r3, #16]
 800244c:	4620      	mov	r0, r4
 800244e:	f000 fae2 	bl	8002a16 <HAL_TIMEx_BreakCallback>
 8002452:	6823      	ldr	r3, [r4, #0]
 8002454:	691a      	ldr	r2, [r3, #16]
 8002456:	0652      	lsls	r2, r2, #25
 8002458:	d508      	bpl.n	800246c <HAL_TIM_IRQHandler+0xf4>
 800245a:	68da      	ldr	r2, [r3, #12]
 800245c:	0650      	lsls	r0, r2, #25
 800245e:	d505      	bpl.n	800246c <HAL_TIM_IRQHandler+0xf4>
 8002460:	f06f 0240 	mvn.w	r2, #64	; 0x40
 8002464:	611a      	str	r2, [r3, #16]
 8002466:	4620      	mov	r0, r4
 8002468:	f7ff ff85 	bl	8002376 <HAL_TIM_TriggerCallback>
 800246c:	6823      	ldr	r3, [r4, #0]
 800246e:	691a      	ldr	r2, [r3, #16]
 8002470:	0691      	lsls	r1, r2, #26
 8002472:	d522      	bpl.n	80024ba <HAL_TIM_IRQHandler+0x142>
 8002474:	68da      	ldr	r2, [r3, #12]
 8002476:	0692      	lsls	r2, r2, #26
 8002478:	d51f      	bpl.n	80024ba <HAL_TIM_IRQHandler+0x142>
 800247a:	f06f 0220 	mvn.w	r2, #32
 800247e:	4620      	mov	r0, r4
 8002480:	611a      	str	r2, [r3, #16]
 8002482:	e8bd 4010 	ldmia.w	sp!, {r4, lr}
 8002486:	f000 bac5 	b.w	8002a14 <HAL_TIMEx_CommutCallback>
 800248a:	f7ff ff71 	bl	8002370 <HAL_TIM_OC_DelayElapsedCallback>
 800248e:	4620      	mov	r0, r4
 8002490:	f7ff ff70 	bl	8002374 <HAL_TIM_PWM_PulseFinishedCallback>
 8002494:	e783      	b.n	800239e <HAL_TIM_IRQHandler+0x26>
 8002496:	f7ff ff6b 	bl	8002370 <HAL_TIM_OC_DelayElapsedCallback>
 800249a:	4620      	mov	r0, r4
 800249c:	f7ff ff6a 	bl	8002374 <HAL_TIM_PWM_PulseFinishedCallback>
 80024a0:	e792      	b.n	80023c8 <HAL_TIM_IRQHandler+0x50>
 80024a2:	f7ff ff65 	bl	8002370 <HAL_TIM_OC_DelayElapsedCallback>
 80024a6:	4620      	mov	r0, r4
 80024a8:	f7ff ff64 	bl	8002374 <HAL_TIM_PWM_PulseFinishedCallback>
 80024ac:	e7a0      	b.n	80023f0 <HAL_TIM_IRQHandler+0x78>
 80024ae:	f7ff ff5f 	bl	8002370 <HAL_TIM_OC_DelayElapsedCallback>
 80024b2:	4620      	mov	r0, r4
 80024b4:	f7ff ff5e 	bl	8002374 <HAL_TIM_PWM_PulseFinishedCallback>
 80024b8:	e7af      	b.n	800241a <HAL_TIM_IRQHandler+0xa2>
 80024ba:	bd10      	pop	{r4, pc}

080024bc <TIM_Base_SetConfig>:
 80024bc:	4a30      	ldr	r2, [pc, #192]	; (8002580 <TIM_Base_SetConfig+0xc4>)
 80024be:	6803      	ldr	r3, [r0, #0]
 80024c0:	4290      	cmp	r0, r2
 80024c2:	d012      	beq.n	80024ea <TIM_Base_SetConfig+0x2e>
 80024c4:	f1b0 4f80 	cmp.w	r0, #1073741824	; 0x40000000
 80024c8:	d00f      	beq.n	80024ea <TIM_Base_SetConfig+0x2e>
 80024ca:	f5a2 427c 	sub.w	r2, r2, #64512	; 0xfc00
 80024ce:	4290      	cmp	r0, r2
 80024d0:	d00b      	beq.n	80024ea <TIM_Base_SetConfig+0x2e>
 80024d2:	f502 6280 	add.w	r2, r2, #1024	; 0x400
 80024d6:	4290      	cmp	r0, r2
 80024d8:	d007      	beq.n	80024ea <TIM_Base_SetConfig+0x2e>
 80024da:	f502 6280 	add.w	r2, r2, #1024	; 0x400
 80024de:	4290      	cmp	r0, r2
 80024e0:	d003      	beq.n	80024ea <TIM_Base_SetConfig+0x2e>
 80024e2:	f502 4278 	add.w	r2, r2, #63488	; 0xf800
 80024e6:	4290      	cmp	r0, r2
 80024e8:	d119      	bne.n	800251e <TIM_Base_SetConfig+0x62>
 80024ea:	684a      	ldr	r2, [r1, #4]
 80024ec:	f023 0370 	bic.w	r3, r3, #112	; 0x70
 80024f0:	4313      	orrs	r3, r2
 80024f2:	4a23      	ldr	r2, [pc, #140]	; (8002580 <TIM_Base_SetConfig+0xc4>)
 80024f4:	4290      	cmp	r0, r2
 80024f6:	d029      	beq.n	800254c <TIM_Base_SetConfig+0x90>
 80024f8:	f1b0 4f80 	cmp.w	r0, #1073741824	; 0x40000000
 80024fc:	d026      	beq.n	800254c <TIM_Base_SetConfig+0x90>
 80024fe:	f5a2 427c 	sub.w	r2, r2, #64512	; 0xfc00
 8002502:	4290      	cmp	r0, r2
 8002504:	d022      	beq.n	800254c <TIM_Base_SetConfig+0x90>
 8002506:	f502 6280 	add.w	r2, r2, #1024	; 0x400
 800250a:	4290      	cmp	r0, r2
 800250c:	d01e      	beq.n	800254c <TIM_Base_SetConfig+0x90>
 800250e:	f502 6280 	add.w	r2, r2, #1024	; 0x400
 8002512:	4290      	cmp	r0, r2
 8002514:	d01a      	beq.n	800254c <TIM_Base_SetConfig+0x90>
 8002516:	f502 4278 	add.w	r2, r2, #63488	; 0xf800
 800251a:	4290      	cmp	r0, r2
 800251c:	d016      	beq.n	800254c <TIM_Base_SetConfig+0x90>
 800251e:	4a19      	ldr	r2, [pc, #100]	; (8002584 <TIM_Base_SetConfig+0xc8>)
 8002520:	4290      	cmp	r0, r2
 8002522:	d013      	beq.n	800254c <TIM_Base_SetConfig+0x90>
 8002524:	f502 6280 	add.w	r2, r2, #1024	; 0x400
 8002528:	4290      	cmp	r0, r2
 800252a:	d00f      	beq.n	800254c <TIM_Base_SetConfig+0x90>
 800252c:	f502 6280 	add.w	r2, r2, #1024	; 0x400
 8002530:	4290      	cmp	r0, r2
 8002532:	d00b      	beq.n	800254c <TIM_Base_SetConfig+0x90>
 8002534:	f5a2 3298 	sub.w	r2, r2, #77824	; 0x13000
 8002538:	4290      	cmp	r0, r2
 800253a:	d007      	beq.n	800254c <TIM_Base_SetConfig+0x90>
 800253c:	f502 6280 	add.w	r2, r2, #1024	; 0x400
 8002540:	4290      	cmp	r0, r2
 8002542:	d003      	beq.n	800254c <TIM_Base_SetConfig+0x90>
 8002544:	f502 6280 	add.w	r2, r2, #1024	; 0x400
 8002548:	4290      	cmp	r0, r2
 800254a:	d103      	bne.n	8002554 <TIM_Base_SetConfig+0x98>
 800254c:	68ca      	ldr	r2, [r1, #12]
 800254e:	f423 7340 	bic.w	r3, r3, #768	; 0x300
 8002552:	4313      	orrs	r3, r2
 8002554:	694a      	ldr	r2, [r1, #20]
 8002556:	f023 0380 	bic.w	r3, r3, #128	; 0x80
 800255a:	4313      	orrs	r3, r2
 800255c:	6003      	str	r3, [r0, #0]
 800255e:	688b      	ldr	r3, [r1, #8]
 8002560:	62c3      	str	r3, [r0, #44]	; 0x2c
 8002562:	680b      	ldr	r3, [r1, #0]
 8002564:	6283      	str	r3, [r0, #40]	; 0x28
 8002566:	4b06      	ldr	r3, [pc, #24]	; (8002580 <TIM_Base_SetConfig+0xc4>)
 8002568:	4298      	cmp	r0, r3
 800256a:	d003      	beq.n	8002574 <TIM_Base_SetConfig+0xb8>
 800256c:	f503 6380 	add.w	r3, r3, #1024	; 0x400
 8002570:	4298      	cmp	r0, r3
 8002572:	d101      	bne.n	8002578 <TIM_Base_SetConfig+0xbc>
 8002574:	690b      	ldr	r3, [r1, #16]
 8002576:	6303      	str	r3, [r0, #48]	; 0x30
 8002578:	2301      	movs	r3, #1
 800257a:	6143      	str	r3, [r0, #20]
 800257c:	4770      	bx	lr
 800257e:	bf00      	nop
 8002580:	40010000 	.word	0x40010000
 8002584:	40014000 	.word	0x40014000

08002588 <HAL_TIM_Base_Init>:
 8002588:	b510      	push	{r4, lr}
 800258a:	4604      	mov	r4, r0
 800258c:	b330      	cbz	r0, 80025dc <HAL_TIM_Base_Init+0x54>
 800258e:	f890 303d 	ldrb.w	r3, [r0, #61]	; 0x3d
 8002592:	f003 02ff 	and.w	r2, r3, #255	; 0xff
 8002596:	b91b      	cbnz	r3, 80025a0 <HAL_TIM_Base_Init+0x18>
 8002598:	f880 203c 	strb.w	r2, [r0, #60]	; 0x3c
 800259c:	f7ff f8ec 	bl	8001778 <HAL_TIM_Base_MspInit>
 80025a0:	2302      	movs	r3, #2
 80025a2:	6820      	ldr	r0, [r4, #0]
 80025a4:	f884 303d 	strb.w	r3, [r4, #61]	; 0x3d
 80025a8:	1d21      	adds	r1, r4, #4
 80025aa:	f7ff ff87 	bl	80024bc <TIM_Base_SetConfig>
 80025ae:	2301      	movs	r3, #1
 80025b0:	f884 3046 	strb.w	r3, [r4, #70]	; 0x46
 80025b4:	2000      	movs	r0, #0
 80025b6:	f884 303e 	strb.w	r3, [r4, #62]	; 0x3e
 80025ba:	f884 303f 	strb.w	r3, [r4, #63]	; 0x3f
 80025be:	f884 3040 	strb.w	r3, [r4, #64]	; 0x40
 80025c2:	f884 3041 	strb.w	r3, [r4, #65]	; 0x41
 80025c6:	f884 3042 	strb.w	r3, [r4, #66]	; 0x42
 80025ca:	f884 3043 	strb.w	r3, [r4, #67]	; 0x43
 80025ce:	f884 3044 	strb.w	r3, [r4, #68]	; 0x44
 80025d2:	f884 3045 	strb.w	r3, [r4, #69]	; 0x45
 80025d6:	f884 303d 	strb.w	r3, [r4, #61]	; 0x3d
 80025da:	bd10      	pop	{r4, pc}
 80025dc:	2001      	movs	r0, #1
 80025de:	e7fc      	b.n	80025da <HAL_TIM_Base_Init+0x52>

080025e0 <HAL_TIM_PWM_Init>:
 80025e0:	b510      	push	{r4, lr}
 80025e2:	4604      	mov	r4, r0
 80025e4:	b330      	cbz	r0, 8002634 <HAL_TIM_PWM_Init+0x54>
 80025e6:	f890 303d 	ldrb.w	r3, [r0, #61]	; 0x3d
 80025ea:	f003 02ff 	and.w	r2, r3, #255	; 0xff
 80025ee:	b91b      	cbnz	r3, 80025f8 <HAL_TIM_PWM_Init+0x18>
 80025f0:	f880 203c 	strb.w	r2, [r0, #60]	; 0x3c
 80025f4:	f7ff feba 	bl	800236c <HAL_TIM_PWM_MspInit>
 80025f8:	2302      	movs	r3, #2
 80025fa:	6820      	ldr	r0, [r4, #0]
 80025fc:	f884 303d 	strb.w	r3, [r4, #61]	; 0x3d
 8002600:	1d21      	adds	r1, r4, #4
 8002602:	f7ff ff5b 	bl	80024bc <TIM_Base_SetConfig>
 8002606:	2301      	movs	r3, #1
 8002608:	f884 3046 	strb.w	r3, [r4, #70]	; 0x46
 800260c:	2000      	movs	r0, #0
 800260e:	f884 303e 	strb.w	r3, [r4, #62]	; 0x3e
 8002612:	f884 303f 	strb.w	r3, [r4, #63]	; 0x3f
 8002616:	f884 3040 	strb.w	r3, [r4, #64]	; 0x40
 800261a:	f884 3041 	strb.w	r3, [r4, #65]	; 0x41
 800261e:	f884 3042 	strb.w	r3, [r4, #66]	; 0x42
 8002622:	f884 3043 	strb.w	r3, [r4, #67]	; 0x43
 8002626:	f884 3044 	strb.w	r3, [r4, #68]	; 0x44
 800262a:	f884 3045 	strb.w	r3, [r4, #69]	; 0x45
 800262e:	f884 303d 	strb.w	r3, [r4, #61]	; 0x3d
 8002632:	bd10      	pop	{r4, pc}
 8002634:	2001      	movs	r0, #1
 8002636:	e7fc      	b.n	8002632 <HAL_TIM_PWM_Init+0x52>

08002638 <TIM_OC2_SetConfig>:
 8002638:	6a03      	ldr	r3, [r0, #32]
 800263a:	f023 0310 	bic.w	r3, r3, #16
 800263e:	6203      	str	r3, [r0, #32]
 8002640:	6a03      	ldr	r3, [r0, #32]
 8002642:	b570      	push	{r4, r5, r6, lr}
 8002644:	6844      	ldr	r4, [r0, #4]
 8002646:	6982      	ldr	r2, [r0, #24]
 8002648:	680d      	ldr	r5, [r1, #0]
 800264a:	f422 42e6 	bic.w	r2, r2, #29440	; 0x7300
 800264e:	ea42 2205 	orr.w	r2, r2, r5, lsl #8
 8002652:	688d      	ldr	r5, [r1, #8]
 8002654:	f023 0320 	bic.w	r3, r3, #32
 8002658:	ea43 1305 	orr.w	r3, r3, r5, lsl #4
 800265c:	4d10      	ldr	r5, [pc, #64]	; (80026a0 <TIM_OC2_SetConfig+0x68>)
 800265e:	42a8      	cmp	r0, r5
 8002660:	d003      	beq.n	800266a <TIM_OC2_SetConfig+0x32>
 8002662:	f505 6580 	add.w	r5, r5, #1024	; 0x400
 8002666:	42a8      	cmp	r0, r5
 8002668:	d114      	bne.n	8002694 <TIM_OC2_SetConfig+0x5c>
 800266a:	68cd      	ldr	r5, [r1, #12]
 800266c:	f023 0380 	bic.w	r3, r3, #128	; 0x80
 8002670:	ea43 1305 	orr.w	r3, r3, r5, lsl #4
 8002674:	4d0a      	ldr	r5, [pc, #40]	; (80026a0 <TIM_OC2_SetConfig+0x68>)
 8002676:	42a8      	cmp	r0, r5
 8002678:	f023 0340 	bic.w	r3, r3, #64	; 0x40
 800267c:	d003      	beq.n	8002686 <TIM_OC2_SetConfig+0x4e>
 800267e:	f505 6580 	add.w	r5, r5, #1024	; 0x400
 8002682:	42a8      	cmp	r0, r5
 8002684:	d106      	bne.n	8002694 <TIM_OC2_SetConfig+0x5c>
 8002686:	e9d1 5605 	ldrd	r5, r6, [r1, #20]
 800268a:	f424 6440 	bic.w	r4, r4, #3072	; 0xc00
 800268e:	4335      	orrs	r5, r6
 8002690:	ea44 0485 	orr.w	r4, r4, r5, lsl #2
 8002694:	6044      	str	r4, [r0, #4]
 8002696:	6182      	str	r2, [r0, #24]
 8002698:	684a      	ldr	r2, [r1, #4]
 800269a:	6382      	str	r2, [r0, #56]	; 0x38
 800269c:	6203      	str	r3, [r0, #32]
 800269e:	bd70      	pop	{r4, r5, r6, pc}
 80026a0:	40010000 	.word	0x40010000

080026a4 <HAL_TIM_PWM_ConfigChannel>:
 80026a4:	b570      	push	{r4, r5, r6, lr}
 80026a6:	f890 303c 	ldrb.w	r3, [r0, #60]	; 0x3c
 80026aa:	2b01      	cmp	r3, #1
 80026ac:	4605      	mov	r5, r0
 80026ae:	4614      	mov	r4, r2
 80026b0:	d054      	beq.n	800275c <HAL_TIM_PWM_ConfigChannel+0xb8>
 80026b2:	2201      	movs	r2, #1
 80026b4:	2c08      	cmp	r4, #8
 80026b6:	f880 203c 	strb.w	r2, [r0, #60]	; 0x3c
 80026ba:	d03e      	beq.n	800273a <HAL_TIM_PWM_ConfigChannel+0x96>
 80026bc:	d807      	bhi.n	80026ce <HAL_TIM_PWM_ConfigChannel+0x2a>
 80026be:	b1cc      	cbz	r4, 80026f4 <HAL_TIM_PWM_ConfigChannel+0x50>
 80026c0:	2c04      	cmp	r4, #4
 80026c2:	d029      	beq.n	8002718 <HAL_TIM_PWM_ConfigChannel+0x74>
 80026c4:	2300      	movs	r3, #0
 80026c6:	f885 303c 	strb.w	r3, [r5, #60]	; 0x3c
 80026ca:	4610      	mov	r0, r2
 80026cc:	bd70      	pop	{r4, r5, r6, pc}
 80026ce:	2c0c      	cmp	r4, #12
 80026d0:	d1f8      	bne.n	80026c4 <HAL_TIM_PWM_ConfigChannel+0x20>
 80026d2:	6800      	ldr	r0, [r0, #0]
 80026d4:	f7ff fdea 	bl	80022ac <TIM_OC4_SetConfig>
 80026d8:	682b      	ldr	r3, [r5, #0]
 80026da:	6909      	ldr	r1, [r1, #16]
 80026dc:	69da      	ldr	r2, [r3, #28]
 80026de:	f442 6200 	orr.w	r2, r2, #2048	; 0x800
 80026e2:	61da      	str	r2, [r3, #28]
 80026e4:	69da      	ldr	r2, [r3, #28]
 80026e6:	f422 6280 	bic.w	r2, r2, #1024	; 0x400
 80026ea:	61da      	str	r2, [r3, #28]
 80026ec:	69da      	ldr	r2, [r3, #28]
 80026ee:	ea42 2201 	orr.w	r2, r2, r1, lsl #8
 80026f2:	e031      	b.n	8002758 <HAL_TIM_PWM_ConfigChannel+0xb4>
 80026f4:	6800      	ldr	r0, [r0, #0]
 80026f6:	f7ff fd71 	bl	80021dc <TIM_OC1_SetConfig>
 80026fa:	682b      	ldr	r3, [r5, #0]
 80026fc:	6909      	ldr	r1, [r1, #16]
 80026fe:	699a      	ldr	r2, [r3, #24]
 8002700:	f042 0208 	orr.w	r2, r2, #8
 8002704:	619a      	str	r2, [r3, #24]
 8002706:	699a      	ldr	r2, [r3, #24]
 8002708:	f022 0204 	bic.w	r2, r2, #4
 800270c:	619a      	str	r2, [r3, #24]
 800270e:	699a      	ldr	r2, [r3, #24]
 8002710:	430a      	orrs	r2, r1
 8002712:	619a      	str	r2, [r3, #24]
 8002714:	2200      	movs	r2, #0
 8002716:	e7d5      	b.n	80026c4 <HAL_TIM_PWM_ConfigChannel+0x20>
 8002718:	6800      	ldr	r0, [r0, #0]
 800271a:	f7ff ff8d 	bl	8002638 <TIM_OC2_SetConfig>
 800271e:	682b      	ldr	r3, [r5, #0]
 8002720:	6909      	ldr	r1, [r1, #16]
 8002722:	699a      	ldr	r2, [r3, #24]
 8002724:	f442 6200 	orr.w	r2, r2, #2048	; 0x800
 8002728:	619a      	str	r2, [r3, #24]
 800272a:	699a      	ldr	r2, [r3, #24]
 800272c:	f422 6280 	bic.w	r2, r2, #1024	; 0x400
 8002730:	619a      	str	r2, [r3, #24]
 8002732:	699a      	ldr	r2, [r3, #24]
 8002734:	ea42 2201 	orr.w	r2, r2, r1, lsl #8
 8002738:	e7eb      	b.n	8002712 <HAL_TIM_PWM_ConfigChannel+0x6e>
 800273a:	6800      	ldr	r0, [r0, #0]
 800273c:	f7ff fd80 	bl	8002240 <TIM_OC3_SetConfig>
 8002740:	682b      	ldr	r3, [r5, #0]
 8002742:	6909      	ldr	r1, [r1, #16]
 8002744:	69da      	ldr	r2, [r3, #28]
 8002746:	f042 0208 	orr.w	r2, r2, #8
 800274a:	61da      	str	r2, [r3, #28]
 800274c:	69da      	ldr	r2, [r3, #28]
 800274e:	f022 0204 	bic.w	r2, r2, #4
 8002752:	61da      	str	r2, [r3, #28]
 8002754:	69da      	ldr	r2, [r3, #28]
 8002756:	430a      	orrs	r2, r1
 8002758:	61da      	str	r2, [r3, #28]
 800275a:	e7db      	b.n	8002714 <HAL_TIM_PWM_ConfigChannel+0x70>
 800275c:	2202      	movs	r2, #2
 800275e:	e7b4      	b.n	80026ca <HAL_TIM_PWM_ConfigChannel+0x26>

08002760 <TIM_ETR_SetConfig>:
 8002760:	b510      	push	{r4, lr}
 8002762:	6884      	ldr	r4, [r0, #8]
 8002764:	4311      	orrs	r1, r2
 8002766:	f424 447f 	bic.w	r4, r4, #65280	; 0xff00
 800276a:	ea41 2303 	orr.w	r3, r1, r3, lsl #8
 800276e:	4323      	orrs	r3, r4
 8002770:	6083      	str	r3, [r0, #8]
 8002772:	bd10      	pop	{r4, pc}

08002774 <HAL_TIM_ConfigClockSource>:
 8002774:	b570      	push	{r4, r5, r6, lr}
 8002776:	f890 303c 	ldrb.w	r3, [r0, #60]	; 0x3c
 800277a:	2b01      	cmp	r3, #1
 800277c:	4604      	mov	r4, r0
 800277e:	f04f 0302 	mov.w	r3, #2
 8002782:	f000 8091 	beq.w	80028a8 <HAL_TIM_ConfigClockSource+0x134>
 8002786:	2201      	movs	r2, #1
 8002788:	f880 303d 	strb.w	r3, [r0, #61]	; 0x3d
 800278c:	f880 203c 	strb.w	r2, [r0, #60]	; 0x3c
 8002790:	6800      	ldr	r0, [r0, #0]
 8002792:	6883      	ldr	r3, [r0, #8]
 8002794:	f423 437f 	bic.w	r3, r3, #65280	; 0xff00
 8002798:	f023 0377 	bic.w	r3, r3, #119	; 0x77
 800279c:	6083      	str	r3, [r0, #8]
 800279e:	680b      	ldr	r3, [r1, #0]
 80027a0:	2b60      	cmp	r3, #96	; 0x60
 80027a2:	d052      	beq.n	800284a <HAL_TIM_ConfigClockSource+0xd6>
 80027a4:	d833      	bhi.n	800280e <HAL_TIM_ConfigClockSource+0x9a>
 80027a6:	2b40      	cmp	r3, #64	; 0x40
 80027a8:	d067      	beq.n	800287a <HAL_TIM_ConfigClockSource+0x106>
 80027aa:	d816      	bhi.n	80027da <HAL_TIM_ConfigClockSource+0x66>
 80027ac:	2b20      	cmp	r3, #32
 80027ae:	d00d      	beq.n	80027cc <HAL_TIM_ConfigClockSource+0x58>
 80027b0:	d80a      	bhi.n	80027c8 <HAL_TIM_ConfigClockSource+0x54>
 80027b2:	f033 0110 	bics.w	r1, r3, #16
 80027b6:	d009      	beq.n	80027cc <HAL_TIM_ConfigClockSource+0x58>
 80027b8:	2301      	movs	r3, #1
 80027ba:	f884 303d 	strb.w	r3, [r4, #61]	; 0x3d
 80027be:	2300      	movs	r3, #0
 80027c0:	f884 303c 	strb.w	r3, [r4, #60]	; 0x3c
 80027c4:	4610      	mov	r0, r2
 80027c6:	bd70      	pop	{r4, r5, r6, pc}
 80027c8:	2b30      	cmp	r3, #48	; 0x30
 80027ca:	d1f5      	bne.n	80027b8 <HAL_TIM_ConfigClockSource+0x44>
 80027cc:	6882      	ldr	r2, [r0, #8]
 80027ce:	f022 0270 	bic.w	r2, r2, #112	; 0x70
 80027d2:	4313      	orrs	r3, r2
 80027d4:	f043 0307 	orr.w	r3, r3, #7
 80027d8:	e017      	b.n	800280a <HAL_TIM_ConfigClockSource+0x96>
 80027da:	2b50      	cmp	r3, #80	; 0x50
 80027dc:	d1ec      	bne.n	80027b8 <HAL_TIM_ConfigClockSource+0x44>
 80027de:	684a      	ldr	r2, [r1, #4]
 80027e0:	68ce      	ldr	r6, [r1, #12]
 80027e2:	6a01      	ldr	r1, [r0, #32]
 80027e4:	6a05      	ldr	r5, [r0, #32]
 80027e6:	f025 0501 	bic.w	r5, r5, #1
 80027ea:	6205      	str	r5, [r0, #32]
 80027ec:	6983      	ldr	r3, [r0, #24]
 80027ee:	f021 010a 	bic.w	r1, r1, #10
 80027f2:	f023 03f0 	bic.w	r3, r3, #240	; 0xf0
 80027f6:	ea43 1306 	orr.w	r3, r3, r6, lsl #4
 80027fa:	430a      	orrs	r2, r1
 80027fc:	6183      	str	r3, [r0, #24]
 80027fe:	6202      	str	r2, [r0, #32]
 8002800:	6883      	ldr	r3, [r0, #8]
 8002802:	f023 0370 	bic.w	r3, r3, #112	; 0x70
 8002806:	f043 0357 	orr.w	r3, r3, #87	; 0x57
 800280a:	6083      	str	r3, [r0, #8]
 800280c:	e011      	b.n	8002832 <HAL_TIM_ConfigClockSource+0xbe>
 800280e:	f5b3 5f80 	cmp.w	r3, #4096	; 0x1000
 8002812:	d00e      	beq.n	8002832 <HAL_TIM_ConfigClockSource+0xbe>
 8002814:	f5b3 5f00 	cmp.w	r3, #8192	; 0x2000
 8002818:	d00d      	beq.n	8002836 <HAL_TIM_ConfigClockSource+0xc2>
 800281a:	2b70      	cmp	r3, #112	; 0x70
 800281c:	d1cc      	bne.n	80027b8 <HAL_TIM_ConfigClockSource+0x44>
 800281e:	68cb      	ldr	r3, [r1, #12]
 8002820:	e9d1 2101 	ldrd	r2, r1, [r1, #4]
 8002824:	f7ff ff9c 	bl	8002760 <TIM_ETR_SetConfig>
 8002828:	6822      	ldr	r2, [r4, #0]
 800282a:	6893      	ldr	r3, [r2, #8]
 800282c:	f043 0377 	orr.w	r3, r3, #119	; 0x77
 8002830:	6093      	str	r3, [r2, #8]
 8002832:	2200      	movs	r2, #0
 8002834:	e7c0      	b.n	80027b8 <HAL_TIM_ConfigClockSource+0x44>
 8002836:	68cb      	ldr	r3, [r1, #12]
 8002838:	e9d1 2101 	ldrd	r2, r1, [r1, #4]
 800283c:	f7ff ff90 	bl	8002760 <TIM_ETR_SetConfig>
 8002840:	6822      	ldr	r2, [r4, #0]
 8002842:	6893      	ldr	r3, [r2, #8]
 8002844:	f443 4380 	orr.w	r3, r3, #16384	; 0x4000
 8002848:	e7f2      	b.n	8002830 <HAL_TIM_ConfigClockSource+0xbc>
 800284a:	684d      	ldr	r5, [r1, #4]
 800284c:	68ce      	ldr	r6, [r1, #12]
 800284e:	6a01      	ldr	r1, [r0, #32]
 8002850:	f021 0110 	bic.w	r1, r1, #16
 8002854:	6201      	str	r1, [r0, #32]
 8002856:	6982      	ldr	r2, [r0, #24]
 8002858:	6a03      	ldr	r3, [r0, #32]
 800285a:	f422 4270 	bic.w	r2, r2, #61440	; 0xf000
 800285e:	f023 03a0 	bic.w	r3, r3, #160	; 0xa0
 8002862:	ea43 1305 	orr.w	r3, r3, r5, lsl #4
 8002866:	ea42 3206 	orr.w	r2, r2, r6, lsl #12
 800286a:	6182      	str	r2, [r0, #24]
 800286c:	6203      	str	r3, [r0, #32]
 800286e:	6883      	ldr	r3, [r0, #8]
 8002870:	f023 0370 	bic.w	r3, r3, #112	; 0x70
 8002874:	f043 0367 	orr.w	r3, r3, #103	; 0x67
 8002878:	e7c7      	b.n	800280a <HAL_TIM_ConfigClockSource+0x96>
 800287a:	684a      	ldr	r2, [r1, #4]
 800287c:	68ce      	ldr	r6, [r1, #12]
 800287e:	6a01      	ldr	r1, [r0, #32]
 8002880:	6a05      	ldr	r5, [r0, #32]
 8002882:	f025 0501 	bic.w	r5, r5, #1
 8002886:	6205      	str	r5, [r0, #32]
 8002888:	6983      	ldr	r3, [r0, #24]
 800288a:	f021 010a 	bic.w	r1, r1, #10
 800288e:	f023 03f0 	bic.w	r3, r3, #240	; 0xf0
 8002892:	ea43 1306 	orr.w	r3, r3, r6, lsl #4
 8002896:	430a      	orrs	r2, r1
 8002898:	6183      	str	r3, [r0, #24]
 800289a:	6202      	str	r2, [r0, #32]
 800289c:	6883      	ldr	r3, [r0, #8]
 800289e:	f023 0370 	bic.w	r3, r3, #112	; 0x70
 80028a2:	f043 0347 	orr.w	r3, r3, #71	; 0x47
 80028a6:	e7b0      	b.n	800280a <HAL_TIM_ConfigClockSource+0x96>
 80028a8:	461a      	mov	r2, r3
 80028aa:	e78b      	b.n	80027c4 <HAL_TIM_ConfigClockSource+0x50>

080028ac <TIM_CCxChannelCmd>:
 80028ac:	6a03      	ldr	r3, [r0, #32]
 80028ae:	f001 011f 	and.w	r1, r1, #31
 80028b2:	b510      	push	{r4, lr}
 80028b4:	2401      	movs	r4, #1
 80028b6:	408c      	lsls	r4, r1
 80028b8:	ea23 0304 	bic.w	r3, r3, r4
 80028bc:	6203      	str	r3, [r0, #32]
 80028be:	6a03      	ldr	r3, [r0, #32]
 80028c0:	408a      	lsls	r2, r1
 80028c2:	431a      	orrs	r2, r3
 80028c4:	6202      	str	r2, [r0, #32]
 80028c6:	bd10      	pop	{r4, pc}

080028c8 <HAL_TIM_OC_Start>:
 80028c8:	b510      	push	{r4, lr}
 80028ca:	4604      	mov	r4, r0
 80028cc:	b929      	cbnz	r1, 80028da <HAL_TIM_OC_Start+0x12>
 80028ce:	f890 303e 	ldrb.w	r3, [r0, #62]	; 0x3e
 80028d2:	2b01      	cmp	r3, #1
 80028d4:	d01d      	beq.n	8002912 <HAL_TIM_OC_Start+0x4a>
 80028d6:	2001      	movs	r0, #1
 80028d8:	e032      	b.n	8002940 <HAL_TIM_OC_Start+0x78>
 80028da:	2904      	cmp	r1, #4
 80028dc:	d107      	bne.n	80028ee <HAL_TIM_OC_Start+0x26>
 80028de:	f890 303f 	ldrb.w	r3, [r0, #63]	; 0x3f
 80028e2:	2b01      	cmp	r3, #1
 80028e4:	d1f7      	bne.n	80028d6 <HAL_TIM_OC_Start+0xe>
 80028e6:	2302      	movs	r3, #2
 80028e8:	f880 303f 	strb.w	r3, [r0, #63]	; 0x3f
 80028ec:	e014      	b.n	8002918 <HAL_TIM_OC_Start+0x50>
 80028ee:	2908      	cmp	r1, #8
 80028f0:	d107      	bne.n	8002902 <HAL_TIM_OC_Start+0x3a>
 80028f2:	f890 3040 	ldrb.w	r3, [r0, #64]	; 0x40
 80028f6:	2b01      	cmp	r3, #1
 80028f8:	d1ed      	bne.n	80028d6 <HAL_TIM_OC_Start+0xe>
 80028fa:	2302      	movs	r3, #2
 80028fc:	f880 3040 	strb.w	r3, [r0, #64]	; 0x40
 8002900:	e00a      	b.n	8002918 <HAL_TIM_OC_Start+0x50>
 8002902:	f890 3041 	ldrb.w	r3, [r0, #65]	; 0x41
 8002906:	2b01      	cmp	r3, #1
 8002908:	d1e5      	bne.n	80028d6 <HAL_TIM_OC_Start+0xe>
 800290a:	2302      	movs	r3, #2
 800290c:	f880 3041 	strb.w	r3, [r0, #65]	; 0x41
 8002910:	e002      	b.n	8002918 <HAL_TIM_OC_Start+0x50>
 8002912:	2302      	movs	r3, #2
 8002914:	f880 303e 	strb.w	r3, [r0, #62]	; 0x3e
 8002918:	2201      	movs	r2, #1
 800291a:	6820      	ldr	r0, [r4, #0]
 800291c:	f7ff ffc6 	bl	80028ac <TIM_CCxChannelCmd>
 8002920:	6823      	ldr	r3, [r4, #0]
 8002922:	4a19      	ldr	r2, [pc, #100]	; (8002988 <HAL_TIM_OC_Start+0xc0>)
 8002924:	4293      	cmp	r3, r2
 8002926:	d00c      	beq.n	8002942 <HAL_TIM_OC_Start+0x7a>
 8002928:	4918      	ldr	r1, [pc, #96]	; (800298c <HAL_TIM_OC_Start+0xc4>)
 800292a:	428b      	cmp	r3, r1
 800292c:	d009      	beq.n	8002942 <HAL_TIM_OC_Start+0x7a>
 800292e:	f1b3 4f80 	cmp.w	r3, #1073741824	; 0x40000000
 8002932:	d10d      	bne.n	8002950 <HAL_TIM_OC_Start+0x88>
 8002934:	689a      	ldr	r2, [r3, #8]
 8002936:	f002 0207 	and.w	r2, r2, #7
 800293a:	2a06      	cmp	r2, #6
 800293c:	d11f      	bne.n	800297e <HAL_TIM_OC_Start+0xb6>
 800293e:	2000      	movs	r0, #0
 8002940:	bd10      	pop	{r4, pc}
 8002942:	6c59      	ldr	r1, [r3, #68]	; 0x44
 8002944:	4293      	cmp	r3, r2
 8002946:	f441 4100 	orr.w	r1, r1, #32768	; 0x8000
 800294a:	6459      	str	r1, [r3, #68]	; 0x44
 800294c:	d0f2      	beq.n	8002934 <HAL_TIM_OC_Start+0x6c>
 800294e:	e7ee      	b.n	800292e <HAL_TIM_OC_Start+0x66>
 8002950:	4a0f      	ldr	r2, [pc, #60]	; (8002990 <HAL_TIM_OC_Start+0xc8>)
 8002952:	4293      	cmp	r3, r2
 8002954:	d0ee      	beq.n	8002934 <HAL_TIM_OC_Start+0x6c>
 8002956:	f502 6280 	add.w	r2, r2, #1024	; 0x400
 800295a:	4293      	cmp	r3, r2
 800295c:	d0ea      	beq.n	8002934 <HAL_TIM_OC_Start+0x6c>
 800295e:	f502 6280 	add.w	r2, r2, #1024	; 0x400
 8002962:	4293      	cmp	r3, r2
 8002964:	d0e6      	beq.n	8002934 <HAL_TIM_OC_Start+0x6c>
 8002966:	f502 4278 	add.w	r2, r2, #63488	; 0xf800
 800296a:	4293      	cmp	r3, r2
 800296c:	d0e2      	beq.n	8002934 <HAL_TIM_OC_Start+0x6c>
 800296e:	f502 5270 	add.w	r2, r2, #15360	; 0x3c00
 8002972:	4293      	cmp	r3, r2
 8002974:	d0de      	beq.n	8002934 <HAL_TIM_OC_Start+0x6c>
 8002976:	f5a2 3294 	sub.w	r2, r2, #75776	; 0x12800
 800297a:	4293      	cmp	r3, r2
 800297c:	d0da      	beq.n	8002934 <HAL_TIM_OC_Start+0x6c>
 800297e:	681a      	ldr	r2, [r3, #0]
 8002980:	f042 0201 	orr.w	r2, r2, #1
 8002984:	601a      	str	r2, [r3, #0]
 8002986:	e7da      	b.n	800293e <HAL_TIM_OC_Start+0x76>
 8002988:	40010000 	.word	0x40010000
 800298c:	40010400 	.word	0x40010400
 8002990:	40000400 	.word	0x40000400

08002994 <HAL_TIM_PWM_Start>:
 8002994:	f7ff bf98 	b.w	80028c8 <HAL_TIM_OC_Start>

08002998 <HAL_TIMEx_MasterConfigSynchronization>:
 8002998:	b530      	push	{r4, r5, lr}
 800299a:	f890 303c 	ldrb.w	r3, [r0, #60]	; 0x3c
 800299e:	2b01      	cmp	r3, #1
 80029a0:	f04f 0302 	mov.w	r3, #2
 80029a4:	d032      	beq.n	8002a0c <HAL_TIMEx_MasterConfigSynchronization+0x74>
 80029a6:	f880 303d 	strb.w	r3, [r0, #61]	; 0x3d
 80029aa:	6803      	ldr	r3, [r0, #0]
 80029ac:	680d      	ldr	r5, [r1, #0]
 80029ae:	685c      	ldr	r4, [r3, #4]
 80029b0:	689a      	ldr	r2, [r3, #8]
 80029b2:	f024 0470 	bic.w	r4, r4, #112	; 0x70
 80029b6:	432c      	orrs	r4, r5
 80029b8:	605c      	str	r4, [r3, #4]
 80029ba:	4c15      	ldr	r4, [pc, #84]	; (8002a10 <HAL_TIMEx_MasterConfigSynchronization+0x78>)
 80029bc:	42a3      	cmp	r3, r4
 80029be:	d01a      	beq.n	80029f6 <HAL_TIMEx_MasterConfigSynchronization+0x5e>
 80029c0:	f1b3 4f80 	cmp.w	r3, #1073741824	; 0x40000000
 80029c4:	d017      	beq.n	80029f6 <HAL_TIMEx_MasterConfigSynchronization+0x5e>
 80029c6:	f5a4 447c 	sub.w	r4, r4, #64512	; 0xfc00
 80029ca:	42a3      	cmp	r3, r4
 80029cc:	d013      	beq.n	80029f6 <HAL_TIMEx_MasterConfigSynchronization+0x5e>
 80029ce:	f504 6480 	add.w	r4, r4, #1024	; 0x400
 80029d2:	42a3      	cmp	r3, r4
 80029d4:	d00f      	beq.n	80029f6 <HAL_TIMEx_MasterConfigSynchronization+0x5e>
 80029d6:	f504 6480 	add.w	r4, r4, #1024	; 0x400
 80029da:	42a3      	cmp	r3, r4
 80029dc:	d00b      	beq.n	80029f6 <HAL_TIMEx_MasterConfigSynchronization+0x5e>
 80029de:	f504 4478 	add.w	r4, r4, #63488	; 0xf800
 80029e2:	42a3      	cmp	r3, r4
 80029e4:	d007      	beq.n	80029f6 <HAL_TIMEx_MasterConfigSynchronization+0x5e>
 80029e6:	f504 5470 	add.w	r4, r4, #15360	; 0x3c00
 80029ea:	42a3      	cmp	r3, r4
 80029ec:	d003      	beq.n	80029f6 <HAL_TIMEx_MasterConfigSynchronization+0x5e>
 80029ee:	f5a4 3494 	sub.w	r4, r4, #75776	; 0x12800
 80029f2:	42a3      	cmp	r3, r4
 80029f4:	d104      	bne.n	8002a00 <HAL_TIMEx_MasterConfigSynchronization+0x68>
 80029f6:	6849      	ldr	r1, [r1, #4]
 80029f8:	f022 0280 	bic.w	r2, r2, #128	; 0x80
 80029fc:	430a      	orrs	r2, r1
 80029fe:	609a      	str	r2, [r3, #8]
 8002a00:	2301      	movs	r3, #1
 8002a02:	f880 303d 	strb.w	r3, [r0, #61]	; 0x3d
 8002a06:	2300      	movs	r3, #0
 8002a08:	f880 303c 	strb.w	r3, [r0, #60]	; 0x3c
 8002a0c:	4618      	mov	r0, r3
 8002a0e:	bd30      	pop	{r4, r5, pc}
 8002a10:	40010000 	.word	0x40010000

08002a14 <HAL_TIMEx_CommutCallback>:
 8002a14:	4770      	bx	lr

08002a16 <HAL_TIMEx_BreakCallback>:
 8002a16:	4770      	bx	lr

08002a18 <atoi>:
 8002a18:	220a      	movs	r2, #10
 8002a1a:	2100      	movs	r1, #0
 8002a1c:	f000 b8c4 	b.w	8002ba8 <strtol>

08002a20 <__errno>:
 8002a20:	4b01      	ldr	r3, [pc, #4]	; (8002a28 <__errno+0x8>)
 8002a22:	6818      	ldr	r0, [r3, #0]
 8002a24:	4770      	bx	lr
 8002a26:	bf00      	nop
 8002a28:	20000048 	.word	0x20000048

08002a2c <__libc_init_array>:
 8002a2c:	b570      	push	{r4, r5, r6, lr}
 8002a2e:	4d0d      	ldr	r5, [pc, #52]	; (8002a64 <__libc_init_array+0x38>)
 8002a30:	4c0d      	ldr	r4, [pc, #52]	; (8002a68 <__libc_init_array+0x3c>)
 8002a32:	1b64      	subs	r4, r4, r5
 8002a34:	10a4      	asrs	r4, r4, #2
 8002a36:	2600      	movs	r6, #0
 8002a38:	42a6      	cmp	r6, r4
 8002a3a:	d109      	bne.n	8002a50 <__libc_init_array+0x24>
 8002a3c:	4d0b      	ldr	r5, [pc, #44]	; (8002a6c <__libc_init_array+0x40>)
 8002a3e:	4c0c      	ldr	r4, [pc, #48]	; (8002a70 <__libc_init_array+0x44>)
 8002a40:	f000 f8bc 	bl	8002bbc <_init>
 8002a44:	1b64      	subs	r4, r4, r5
 8002a46:	10a4      	asrs	r4, r4, #2
 8002a48:	2600      	movs	r6, #0
 8002a4a:	42a6      	cmp	r6, r4
 8002a4c:	d105      	bne.n	8002a5a <__libc_init_array+0x2e>
 8002a4e:	bd70      	pop	{r4, r5, r6, pc}
 8002a50:	f855 3b04 	ldr.w	r3, [r5], #4
 8002a54:	4798      	blx	r3
 8002a56:	3601      	adds	r6, #1
 8002a58:	e7ee      	b.n	8002a38 <__libc_init_array+0xc>
 8002a5a:	f855 3b04 	ldr.w	r3, [r5], #4
 8002a5e:	4798      	blx	r3
 8002a60:	3601      	adds	r6, #1
 8002a62:	e7f2      	b.n	8002a4a <__libc_init_array+0x1e>
 8002a64:	0800582c 	.word	0x0800582c
 8002a68:	0800582c 	.word	0x0800582c
 8002a6c:	0800582c 	.word	0x0800582c
 8002a70:	08005830 	.word	0x08005830

08002a74 <memcpy>:
 8002a74:	440a      	add	r2, r1
 8002a76:	4291      	cmp	r1, r2
 8002a78:	f100 33ff 	add.w	r3, r0, #4294967295	; 0xffffffff
 8002a7c:	d100      	bne.n	8002a80 <memcpy+0xc>
 8002a7e:	4770      	bx	lr
 8002a80:	b510      	push	{r4, lr}
 8002a82:	f811 4b01 	ldrb.w	r4, [r1], #1
 8002a86:	f803 4f01 	strb.w	r4, [r3, #1]!
 8002a8a:	4291      	cmp	r1, r2
 8002a8c:	d1f9      	bne.n	8002a82 <memcpy+0xe>
 8002a8e:	bd10      	pop	{r4, pc}

08002a90 <memset>:
 8002a90:	4402      	add	r2, r0
 8002a92:	4603      	mov	r3, r0
 8002a94:	4293      	cmp	r3, r2
 8002a96:	d100      	bne.n	8002a9a <memset+0xa>
 8002a98:	4770      	bx	lr
 8002a9a:	f803 1b01 	strb.w	r1, [r3], #1
 8002a9e:	e7f9      	b.n	8002a94 <memset+0x4>

08002aa0 <_strtol_l.isra.0>:
 8002aa0:	2b01      	cmp	r3, #1
 8002aa2:	e92d 47f0 	stmdb	sp!, {r4, r5, r6, r7, r8, r9, sl, lr}
 8002aa6:	d001      	beq.n	8002aac <_strtol_l.isra.0+0xc>
 8002aa8:	2b24      	cmp	r3, #36	; 0x24
 8002aaa:	d906      	bls.n	8002aba <_strtol_l.isra.0+0x1a>
 8002aac:	f7ff ffb8 	bl	8002a20 <__errno>
 8002ab0:	2316      	movs	r3, #22
 8002ab2:	6003      	str	r3, [r0, #0]
 8002ab4:	2000      	movs	r0, #0
 8002ab6:	e8bd 87f0 	ldmia.w	sp!, {r4, r5, r6, r7, r8, r9, sl, pc}
 8002aba:	4f3a      	ldr	r7, [pc, #232]	; (8002ba4 <_strtol_l.isra.0+0x104>)
 8002abc:	468e      	mov	lr, r1
 8002abe:	4676      	mov	r6, lr
 8002ac0:	f81e 4b01 	ldrb.w	r4, [lr], #1
 8002ac4:	5de5      	ldrb	r5, [r4, r7]
 8002ac6:	f015 0508 	ands.w	r5, r5, #8
 8002aca:	d1f8      	bne.n	8002abe <_strtol_l.isra.0+0x1e>
 8002acc:	2c2d      	cmp	r4, #45	; 0x2d
 8002ace:	d134      	bne.n	8002b3a <_strtol_l.isra.0+0x9a>
 8002ad0:	f89e 4000 	ldrb.w	r4, [lr]
 8002ad4:	f04f 0801 	mov.w	r8, #1
 8002ad8:	f106 0e02 	add.w	lr, r6, #2
 8002adc:	2b00      	cmp	r3, #0
 8002ade:	d05c      	beq.n	8002b9a <_strtol_l.isra.0+0xfa>
 8002ae0:	2b10      	cmp	r3, #16
 8002ae2:	d10c      	bne.n	8002afe <_strtol_l.isra.0+0x5e>
 8002ae4:	2c30      	cmp	r4, #48	; 0x30
 8002ae6:	d10a      	bne.n	8002afe <_strtol_l.isra.0+0x5e>
 8002ae8:	f89e 4000 	ldrb.w	r4, [lr]
 8002aec:	f004 04df 	and.w	r4, r4, #223	; 0xdf
 8002af0:	2c58      	cmp	r4, #88	; 0x58
 8002af2:	d14d      	bne.n	8002b90 <_strtol_l.isra.0+0xf0>
 8002af4:	f89e 4001 	ldrb.w	r4, [lr, #1]
 8002af8:	2310      	movs	r3, #16
 8002afa:	f10e 0e02 	add.w	lr, lr, #2
 8002afe:	f108 4c00 	add.w	ip, r8, #2147483648	; 0x80000000
 8002b02:	f10c 3cff 	add.w	ip, ip, #4294967295	; 0xffffffff
 8002b06:	2600      	movs	r6, #0
 8002b08:	fbbc f9f3 	udiv	r9, ip, r3
 8002b0c:	4635      	mov	r5, r6
 8002b0e:	fb03 ca19 	mls	sl, r3, r9, ip
 8002b12:	f1a4 0730 	sub.w	r7, r4, #48	; 0x30
 8002b16:	2f09      	cmp	r7, #9
 8002b18:	d818      	bhi.n	8002b4c <_strtol_l.isra.0+0xac>
 8002b1a:	463c      	mov	r4, r7
 8002b1c:	42a3      	cmp	r3, r4
 8002b1e:	dd24      	ble.n	8002b6a <_strtol_l.isra.0+0xca>
 8002b20:	2e00      	cmp	r6, #0
 8002b22:	db1f      	blt.n	8002b64 <_strtol_l.isra.0+0xc4>
 8002b24:	45a9      	cmp	r9, r5
 8002b26:	d31d      	bcc.n	8002b64 <_strtol_l.isra.0+0xc4>
 8002b28:	d101      	bne.n	8002b2e <_strtol_l.isra.0+0x8e>
 8002b2a:	45a2      	cmp	sl, r4
 8002b2c:	db1a      	blt.n	8002b64 <_strtol_l.isra.0+0xc4>
 8002b2e:	fb05 4503 	mla	r5, r5, r3, r4
 8002b32:	2601      	movs	r6, #1
 8002b34:	f81e 4b01 	ldrb.w	r4, [lr], #1
 8002b38:	e7eb      	b.n	8002b12 <_strtol_l.isra.0+0x72>
 8002b3a:	2c2b      	cmp	r4, #43	; 0x2b
 8002b3c:	bf08      	it	eq
 8002b3e:	f89e 4000 	ldrbeq.w	r4, [lr]
 8002b42:	46a8      	mov	r8, r5
 8002b44:	bf08      	it	eq
 8002b46:	f106 0e02 	addeq.w	lr, r6, #2
 8002b4a:	e7c7      	b.n	8002adc <_strtol_l.isra.0+0x3c>
 8002b4c:	f1a4 0741 	sub.w	r7, r4, #65	; 0x41
 8002b50:	2f19      	cmp	r7, #25
 8002b52:	d801      	bhi.n	8002b58 <_strtol_l.isra.0+0xb8>
 8002b54:	3c37      	subs	r4, #55	; 0x37
 8002b56:	e7e1      	b.n	8002b1c <_strtol_l.isra.0+0x7c>
 8002b58:	f1a4 0761 	sub.w	r7, r4, #97	; 0x61
 8002b5c:	2f19      	cmp	r7, #25
 8002b5e:	d804      	bhi.n	8002b6a <_strtol_l.isra.0+0xca>
 8002b60:	3c57      	subs	r4, #87	; 0x57
 8002b62:	e7db      	b.n	8002b1c <_strtol_l.isra.0+0x7c>
 8002b64:	f04f 36ff 	mov.w	r6, #4294967295	; 0xffffffff
 8002b68:	e7e4      	b.n	8002b34 <_strtol_l.isra.0+0x94>
 8002b6a:	2e00      	cmp	r6, #0
 8002b6c:	da05      	bge.n	8002b7a <_strtol_l.isra.0+0xda>
 8002b6e:	2322      	movs	r3, #34	; 0x22
 8002b70:	6003      	str	r3, [r0, #0]
 8002b72:	4665      	mov	r5, ip
 8002b74:	b942      	cbnz	r2, 8002b88 <_strtol_l.isra.0+0xe8>
 8002b76:	4628      	mov	r0, r5
 8002b78:	e79d      	b.n	8002ab6 <_strtol_l.isra.0+0x16>
 8002b7a:	f1b8 0f00 	cmp.w	r8, #0
 8002b7e:	d000      	beq.n	8002b82 <_strtol_l.isra.0+0xe2>
 8002b80:	426d      	negs	r5, r5
 8002b82:	2a00      	cmp	r2, #0
 8002b84:	d0f7      	beq.n	8002b76 <_strtol_l.isra.0+0xd6>
 8002b86:	b10e      	cbz	r6, 8002b8c <_strtol_l.isra.0+0xec>
 8002b88:	f10e 31ff 	add.w	r1, lr, #4294967295	; 0xffffffff
 8002b8c:	6011      	str	r1, [r2, #0]
 8002b8e:	e7f2      	b.n	8002b76 <_strtol_l.isra.0+0xd6>
 8002b90:	2430      	movs	r4, #48	; 0x30
 8002b92:	2b00      	cmp	r3, #0
 8002b94:	d1b3      	bne.n	8002afe <_strtol_l.isra.0+0x5e>
 8002b96:	2308      	movs	r3, #8
 8002b98:	e7b1      	b.n	8002afe <_strtol_l.isra.0+0x5e>
 8002b9a:	2c30      	cmp	r4, #48	; 0x30
 8002b9c:	d0a4      	beq.n	8002ae8 <_strtol_l.isra.0+0x48>
 8002b9e:	230a      	movs	r3, #10
 8002ba0:	e7ad      	b.n	8002afe <_strtol_l.isra.0+0x5e>
 8002ba2:	bf00      	nop
 8002ba4:	08005723 	.word	0x08005723

08002ba8 <strtol>:
 8002ba8:	4613      	mov	r3, r2
 8002baa:	460a      	mov	r2, r1
 8002bac:	4601      	mov	r1, r0
 8002bae:	4802      	ldr	r0, [pc, #8]	; (8002bb8 <strtol+0x10>)
 8002bb0:	6800      	ldr	r0, [r0, #0]
 8002bb2:	f7ff bf75 	b.w	8002aa0 <_strtol_l.isra.0>
 8002bb6:	bf00      	nop
 8002bb8:	20000048 	.word	0x20000048

08002bbc <_init>:
 8002bbc:	b5f8      	push	{r3, r4, r5, r6, r7, lr}
 8002bbe:	bf00      	nop
 8002bc0:	bcf8      	pop	{r3, r4, r5, r6, r7}
 8002bc2:	bc08      	pop	{r3}
 8002bc4:	469e      	mov	lr, r3
 8002bc6:	4770      	bx	lr

08002bc8 <_fini>:
 8002bc8:	b5f8      	push	{r3, r4, r5, r6, r7, lr}
 8002bca:	bf00      	nop
 8002bcc:	bcf8      	pop	{r3, r4, r5, r6, r7}
 8002bce:	bc08      	pop	{r3}
 8002bd0:	469e      	mov	lr, r3
 8002bd2:	4770      	bx	lr
